
CPEN391project.elf:     file format elf32-littlenios2
CPEN391project.elf
architecture: nios2:r1, flags 0x00000112:
EXEC_P, HAS_SYMS, D_PAGED
start address 0x080001bc

Program Header:
    LOAD off    0x00001000 vaddr 0x08000000 paddr 0x08000000 align 2**12
         filesz 0x00000020 memsz 0x00000020 flags r-x
    LOAD off    0x00001020 vaddr 0x08000020 paddr 0x08000020 align 2**12
         filesz 0x00021888 memsz 0x00021888 flags r-x
    LOAD off    0x000228a8 vaddr 0x080218a8 paddr 0x08023420 align 2**12
         filesz 0x00001b78 memsz 0x00001b78 flags rw-
    LOAD off    0x00024f98 vaddr 0x08024f98 paddr 0x08024f98 align 2**12
         filesz 0x00000000 memsz 0x0000026c flags rw-

Sections:
Idx Name          Size      VMA       LMA       File off  Algn
  0 .entry        00000020  08000000  08000000  00001000  2**5
                  CONTENTS, ALLOC, LOAD, READONLY, CODE
  1 .exceptions   0000019c  08000020  08000020  00001020  2**2
                  CONTENTS, ALLOC, LOAD, READONLY, CODE
  2 .text         00016cc0  080001bc  080001bc  000011bc  2**2
                  CONTENTS, ALLOC, LOAD, READONLY, CODE
  3 .rodata       0000aa2c  08016e7c  08016e7c  00017e7c  2**2
                  CONTENTS, ALLOC, LOAD, READONLY, DATA
  4 .rwdata       00001b78  080218a8  08023420  000228a8  2**2
                  CONTENTS, ALLOC, LOAD, DATA, SMALL_DATA
  5 .bss          0000026c  08024f98  08024f98  00024f98  2**2
                  ALLOC, SMALL_DATA
  6 .sdram        00000000  08025204  08025204  00024420  2**0
                  CONTENTS
  7 .comment      00000023  00000000  00000000  00024420  2**0
                  CONTENTS, READONLY
  8 .debug_aranges 00000fa8  00000000  00000000  00024448  2**3
                  CONTENTS, READONLY, DEBUGGING
  9 .debug_info   0002e0c6  00000000  00000000  000253f0  2**0
                  CONTENTS, READONLY, DEBUGGING
 10 .debug_abbrev 0000b47c  00000000  00000000  000534b6  2**0
                  CONTENTS, READONLY, DEBUGGING
 11 .debug_line   0000e566  00000000  00000000  0005e932  2**0
                  CONTENTS, READONLY, DEBUGGING
 12 .debug_frame  00002e20  00000000  00000000  0006ce98  2**2
                  CONTENTS, READONLY, DEBUGGING
 13 .debug_str    000044da  00000000  00000000  0006fcb8  2**0
                  CONTENTS, READONLY, DEBUGGING
 14 .debug_loc    0001f590  00000000  00000000  00074192  2**0
                  CONTENTS, READONLY, DEBUGGING
 15 .debug_alt_sim_info 00000020  00000000  00000000  00093724  2**2
                  CONTENTS, READONLY, DEBUGGING
 16 .debug_ranges 00001700  00000000  00000000  00093748  2**3
                  CONTENTS, READONLY, DEBUGGING
 17 .thread_model 00000003  00000000  00000000  00098d5a  2**0
                  CONTENTS, READONLY
 18 .cpu          0000000c  00000000  00000000  00098d5d  2**0
                  CONTENTS, READONLY
 19 .qsys         00000001  00000000  00000000  00098d69  2**0
                  CONTENTS, READONLY
 20 .simulation_enabled 00000001  00000000  00000000  00098d6a  2**0
                  CONTENTS, READONLY
 21 .stderr_dev   0000000b  00000000  00000000  00098d6b  2**0
                  CONTENTS, READONLY
 22 .stdin_dev    0000000b  00000000  00000000  00098d76  2**0
                  CONTENTS, READONLY
 23 .stdout_dev   0000000b  00000000  00000000  00098d81  2**0
                  CONTENTS, READONLY
 24 .sopc_system_name 0000000b  00000000  00000000  00098d8c  2**0
                  CONTENTS, READONLY
 25 .quartus_project_dir 00000025  00000000  00000000  00098d97  2**0
                  CONTENTS, READONLY
 26 .jdi          00004b4c  00000000  00000000  00098dbc  2**0
                  CONTENTS, READONLY
 27 .sopcinfo     0006f74b  00000000  00000000  0009d908  2**0
                  CONTENTS, READONLY
SYMBOL TABLE:
08000000 l    d  .entry	00000000 .entry
08000020 l    d  .exceptions	00000000 .exceptions
080001bc l    d  .text	00000000 .text
08016e7c l    d  .rodata	00000000 .rodata
080218a8 l    d  .rwdata	00000000 .rwdata
08024f98 l    d  .bss	00000000 .bss
08025204 l    d  .sdram	00000000 .sdram
00000000 l    d  .comment	00000000 .comment
00000000 l    d  .debug_aranges	00000000 .debug_aranges
00000000 l    d  .debug_info	00000000 .debug_info
00000000 l    d  .debug_abbrev	00000000 .debug_abbrev
00000000 l    d  .debug_line	00000000 .debug_line
00000000 l    d  .debug_frame	00000000 .debug_frame
00000000 l    d  .debug_str	00000000 .debug_str
00000000 l    d  .debug_loc	00000000 .debug_loc
00000000 l    d  .debug_alt_sim_info	00000000 .debug_alt_sim_info
00000000 l    d  .debug_ranges	00000000 .debug_ranges
00000000 l    df *ABS*	00000000 ../CPEN391project_bsp//obj/HAL/src/crt0.o
080001f4 l       .text	00000000 alt_after_alt_main
00000000 l    df *ABS*	00000000 alt_exception_entry.o
08000094 l       .exceptions	00000000 alt_exception_unknown
00000000 l    df *ABS*	00000000 alt_irq_handler.c
00000000 l    df *ABS*	00000000 hello_world.c
00000000 l    df *ABS*	00000000 adddf3.c
00000000 l    df *ABS*	00000000 divdf3.c
00000000 l    df *ABS*	00000000 muldf3.c
00000000 l    df *ABS*	00000000 fixdfsi.c
00000000 l    df *ABS*	00000000 floatsidf.c
00000000 l    df *ABS*	00000000 libgcc2.c
00000000 l    df *ABS*	00000000 lib2-divmod.c
08003a94 l     F .text	0000006c udivmodsi4
00000000 l    df *ABS*	00000000 libgcc2.c
00000000 l    df *ABS*	00000000 atof.c
00000000 l    df *ABS*	00000000 malloc.c
00000000 l    df *ABS*	00000000 mallocr.c
00000000 l    df *ABS*	00000000 printf.c
00000000 l    df *ABS*	00000000 putchar.c
00000000 l    df *ABS*	00000000 sbrkr.c
00000000 l    df *ABS*	00000000 sprintf.c
00000000 l    df *ABS*	00000000 strcat.c
00000000 l    df *ABS*	00000000 strcmp.c
00000000 l    df *ABS*	00000000 strcpy.c
00000000 l    df *ABS*	00000000 strlen.c
00000000 l    df *ABS*	00000000 strtod.c
08021cfc l     O .rwdata	00000014 fpi.2638
08021610 l     O .rodata	00000028 tinytens
08021ce8 l     O .rwdata	00000014 fpinan.2674
00000000 l    df *ABS*	00000000 strtok.c
00000000 l    df *ABS*	00000000 strtok_r.c
00000000 l    df *ABS*	00000000 vfprintf.c
0802167a l     O .rodata	00000010 zeroes.4166
0802168a l     O .rodata	00000010 blanks.4165
00000000 l    df *ABS*	00000000 time.c
00000000 l    df *ABS*	00000000 vfprintf.c
0802169a l     O .rodata	00000010 zeroes.4181
080216aa l     O .rodata	00000010 blanks.4180
00000000 l    df *ABS*	00000000 wsetup.c
00000000 l    df *ABS*	00000000 dtoa.c
08009fd4 l     F .text	00000200 quorem
00000000 l    df *ABS*	00000000 fflush.c
00000000 l    df *ABS*	00000000 findfp.c
0800bb54 l     F .text	00000008 __fp_lock
0800bb5c l     F .text	00000008 __fp_unlock
0800bb70 l     F .text	000001a0 __sinit.part.1
00000000 l    df *ABS*	00000000 mallocr.c
00000000 l    df *ABS*	00000000 fwalk.c
00000000 l    df *ABS*	00000000 gdtoa-gethex.c
0800c478 l     F .text	00000100 rshift
00000000 l    df *ABS*	00000000 gdtoa-hexnan.c
00000000 l    df *ABS*	00000000 gettimeofdayr.c
00000000 l    df *ABS*	00000000 impure.c
08021d10 l     O .rwdata	00000424 impure_data
00000000 l    df *ABS*	00000000 int_errno.c
00000000 l    df *ABS*	00000000 locale.c
08022154 l     O .rwdata	00000020 lc_ctype_charset
08022134 l     O .rwdata	00000020 lc_message_charset
08022174 l     O .rwdata	00000038 lconv
00000000 l    df *ABS*	00000000 makebuf.c
00000000 l    df *ABS*	00000000 memchr.c
00000000 l    df *ABS*	00000000 memcpy.c
00000000 l    df *ABS*	00000000 memset.c
00000000 l    df *ABS*	00000000 mprec.c
080216f8 l     O .rodata	0000000c p05.2678
00000000 l    df *ABS*	00000000 putc.c
00000000 l    df *ABS*	00000000 s_fpclassify.c
00000000 l    df *ABS*	00000000 stdio.c
00000000 l    df *ABS*	00000000 strncmp.c
00000000 l    df *ABS*	00000000 vfprintf.c
0802181c l     O .rodata	00000010 zeroes.4110
0802182c l     O .rodata	00000010 blanks.4109
00000000 l    df *ABS*	00000000 vfprintf.c
0800fc74 l     F .text	000000fc __sprint_r.part.0
0802184c l     O .rodata	00000010 blanks.4125
0802183c l     O .rodata	00000010 zeroes.4126
00000000 l    df *ABS*	00000000 wbuf.c
00000000 l    df *ABS*	00000000 writer.c
00000000 l    df *ABS*	00000000 closer.c
00000000 l    df *ABS*	00000000 mallocr.c
00000000 l    df *ABS*	00000000 fclose.c
00000000 l    df *ABS*	00000000 fputwc.c
00000000 l    df *ABS*	00000000 fstatr.c
00000000 l    df *ABS*	00000000 fvwrite.c
00000000 l    df *ABS*	00000000 isattyr.c
00000000 l    df *ABS*	00000000 lseekr.c
00000000 l    df *ABS*	00000000 memmove.c
00000000 l    df *ABS*	00000000 readr.c
00000000 l    df *ABS*	00000000 mallocr.c
00000000 l    df *ABS*	00000000 wcrtomb.c
00000000 l    df *ABS*	00000000 wctomb_r.c
00000000 l    df *ABS*	00000000 libgcc2.c
00000000 l    df *ABS*	00000000 libgcc2.c
00000000 l    df *ABS*	00000000 libgcc2.c
00000000 l    df *ABS*	00000000 eqsf2.c
00000000 l    df *ABS*	00000000 gesf2.c
00000000 l    df *ABS*	00000000 lesf2.c
00000000 l    df *ABS*	00000000 eqdf2.c
00000000 l    df *ABS*	00000000 gedf2.c
00000000 l    df *ABS*	00000000 ledf2.c
00000000 l    df *ABS*	00000000 subdf3.c
00000000 l    df *ABS*	00000000 floatunsidf.c
00000000 l    df *ABS*	00000000 truncdfsf2.c
00000000 l    df *ABS*	00000000 alt_close.c
080140d8 l     F .text	00000050 alt_get_errno
00000000 l    df *ABS*	00000000 alt_dev.c
080141f8 l     F .text	0000002c alt_dev_null_write
00000000 l    df *ABS*	00000000 alt_errno.c
00000000 l    df *ABS*	00000000 alt_fstat.c
08014224 l     F .text	00000050 alt_get_errno
00000000 l    df *ABS*	00000000 alt_gettod.c
00000000 l    df *ABS*	00000000 alt_isatty.c
08014518 l     F .text	00000050 alt_get_errno
00000000 l    df *ABS*	00000000 alt_load.c
0801460c l     F .text	00000064 alt_load_section
00000000 l    df *ABS*	00000000 alt_lseek.c
080146f0 l     F .text	00000050 alt_get_errno
00000000 l    df *ABS*	00000000 alt_main.c
00000000 l    df *ABS*	00000000 alt_malloc_lock.c
00000000 l    df *ABS*	00000000 alt_read.c
080148cc l     F .text	00000050 alt_get_errno
00000000 l    df *ABS*	00000000 alt_release_fd.c
00000000 l    df *ABS*	00000000 alt_sbrk.c
08023410 l     O .rwdata	00000004 heap_end
00000000 l    df *ABS*	00000000 alt_tick.c
00000000 l    df *ABS*	00000000 alt_sys_init.c
08014cc4 l     F .text	00000038 alt_dev_reg
08022354 l     O .rwdata	00001060 jtag_uart_0
080233b4 l     O .rwdata	0000002c character_lcd_0
00000000 l    df *ABS*	00000000 altera_avalon_jtag_uart_fd.c
00000000 l    df *ABS*	00000000 altera_avalon_jtag_uart_init.c
08014fc8 l     F .text	00000204 altera_avalon_jtag_uart_irq
080151cc l     F .text	000000a8 altera_avalon_jtag_uart_timeout
00000000 l    df *ABS*	00000000 altera_avalon_jtag_uart_ioctl.c
00000000 l    df *ABS*	00000000 altera_avalon_jtag_uart_read.c
00000000 l    df *ABS*	00000000 altera_avalon_jtag_uart_write.c
00000000 l    df *ABS*	00000000 altera_avalon_timer_sc.c
080157ec l     F .text	00000074 alt_avalon_timer_sc_irq
00000000 l    df *ABS*	00000000 altera_up_avalon_character_lcd.c
00000000 l    df *ABS*	00000000 alt_alarm_start.c
00000000 l    df *ABS*	00000000 alt_dcache_flush_all.c
00000000 l    df *ABS*	00000000 alt_dev_llist_insert.c
08015f1c l     F .text	00000050 alt_get_errno
00000000 l    df *ABS*	00000000 alt_do_ctors.c
00000000 l    df *ABS*	00000000 alt_do_dtors.c
00000000 l    df *ABS*	00000000 alt_find_dev.c
00000000 l    df *ABS*	00000000 alt_icache_flush_all.c
00000000 l    df *ABS*	00000000 alt_iic.c
00000000 l    df *ABS*	00000000 alt_iic_isr_register.c
00000000 l    df *ABS*	00000000 alt_io_redirect.c
08016458 l     F .text	000000c0 alt_open_fd
00000000 l    df *ABS*	00000000 alt_irq_vars.c
00000000 l    df *ABS*	00000000 alt_open.c
08016590 l     F .text	00000050 alt_get_errno
080165e0 l     F .text	000000cc alt_file_locked
00000000 l    df *ABS*	00000000 altera_nios2_qsys_irq.c
00000000 l    df *ABS*	00000000 alt_find_file.c
00000000 l    df *ABS*	00000000 alt_get_fd.c
00000000 l    df *ABS*	00000000 alt_icache_flush.c
00000000 l    df *ABS*	00000000 atexit.c
00000000 l    df *ABS*	00000000 exit.c
00000000 l    df *ABS*	00000000 memcmp.c
00000000 l    df *ABS*	00000000 __atexit.c
00000000 l    df *ABS*	00000000 __call_atexit.c
00000000 l    df *ABS*	00000000 libgcc2.c
00000000 l    df *ABS*	00000000 alt_exit.c
08004408 g     F .text	00000018 putchar
0800e4f4 g     F .text	00000074 _mprec_log10
0800e5e0 g     F .text	0000008c __any_on
08011bd8 g     F .text	00000054 _isatty_r
08021704 g     O .rodata	00000028 __mprec_tinytens
08014814 g     F .text	00000078 alt_main
08004664 g     F .text	00000090 strcpy
080016e0 g     F .text	000002e4 drawBox1
08025104 g     O .bss	00000100 alt_irq
08011c2c g     F .text	0000005c _lseek_r
08023420 g       *ABS*	00000000 __flash_rwdata_start
0801595c g     F .text	0000003c alt_up_character_lcd_send_cmd
08013388 g     F .text	00000084 .hidden __eqdf2
0800d0ac g     F .text	00000058 _gettimeofday_r
0800112c g     F .text	0000007c ProgramPalette
08025204 g       *ABS*	00000000 __alt_heap_start
08005e9c g     F .text	00000008 strtok_r
080043c4 g     F .text	0000003c printf
08017116 g     O .rodata	00000a64 Font10x14
080123e0 g     F .text	0000009c _wcrtomb_r
0800135c g     F .text	00000074 DrawVlineWeighted
0800e920 g     F .text	0000005c __sseek
0800bea4 g     F .text	00000010 __sinit
08011108 g     F .text	00000154 __swbuf_r
0800d104 g     F .text	0000007c _setlocale_r
0800bd10 g     F .text	00000064 __sfmoreglue
080148ac g     F .text	00000020 __malloc_unlock
0800478c g     F .text	00001540 _strtod_r
08011c88 g     F .text	0000015c memmove
0800be8c g     F .text	00000018 _cleanup
0800d6e0 g     F .text	000000a8 _Balloc
08005e04 g     F .text	00000098 __strtok_r
08000948 g     F .text	000000b4 getPressTime
08000664 g     F .text	00000050 screenTouched
0801340c g     F .text	000000e0 .hidden __gtdf2
00000000  w      *UND*	00000000 __errno
080158e8 g     F .text	00000074 get_DDRAM_addr
08000000 g     F .entry	0000001c __reset
08000020 g       *ABS*	00000000 __flash_exceptions_start
080116dc g     F .text	00000058 _fstat_r
08024fa4 g     O .bss	00000004 errno
0800e89c g     F .text	00000008 __seofread
0800ec0c g     F .text	00001068 ___svfiprintf_internal_r
08024fc8 g     O .bss	00000004 alt_argv
0802b3e0 g       *ABS*	00000000 _gp
08000a40 g     F .text	00000044 getRelease
080221d4 g     O .rwdata	00000180 alt_fd_list
08004400 g     F .text	00000008 _putchar_r
080160c8 g     F .text	00000090 alt_find_dev
0800d484 g     F .text	00000138 memcpy
0800ce18 g     F .text	00000294 __hexnan
08015af8 g     F .text	00000050 alt_up_character_lcd_write_fd
080003a4 g     F .text	00000190 OutGraphicsCharFont2a
0800bb64 g     F .text	0000000c _cleanup_r
08003960 g     F .text	000000d0 .hidden __floatsidf
08016518 g     F .text	00000078 alt_io_redirect
080134ec g     F .text	000000e0 .hidden __ltdf2
08016e7c g       *ABS*	00000000 __DTOR_END__
08000534 g     F .text	0000003c initRS232Touch
0800e7d4 g     F .text	00000074 __fpclassifyd
0800e450 g     F .text	000000a4 __ratio
080110e4 g     F .text	00000024 __vfiprintf_internal
080153c8 g     F .text	0000020c altera_avalon_jtag_uart_read
08003bc8 g     F .text	00000014 malloc
08004398 g     F .text	0000002c _printf_r
08003bb0 g     F .text	00000008 .hidden __udivsi3
08014568 g     F .text	000000a4 isatty
08021754 g     O .rodata	000000c8 __mprec_tens
0801bc0c g     O .rodata	00005794 Font38x59
0800d180 g     F .text	0000000c __locale_charset
080132d0 g     F .text	000000b8 .hidden __lesf2
08024fb4 g     O .bss	00000008 alt_timezone
080125e0 g     F .text	00000074 .hidden __fixunsdfsi
080169ec g     F .text	0000008c alt_icache_flush
08001ebc g     F .text	00000050 getLostmessage
08024fa0 g     O .bss	00000004 __malloc_top_pad
08001248 g     F .text	00000074 DrawHlineWeighted
080233f0 g     O .rwdata	00000004 __mb_cur_max
0800d1b0 g     F .text	0000000c _localeconv_r
08011734 g     F .text	000004a4 __sfvwrite_r
0800dae0 g     F .text	0000003c __i2b
08004420 g     F .text	00000054 _sbrk_r
080218c8 g     O .rwdata	00000017 safeMessage
08011de4 g     F .text	0000005c _read_r
08023408 g     O .rwdata	00000004 alt_max_fd
080113ec g     F .text	00000100 _fclose_r
0800bb24 g     F .text	00000030 fflush
08024f9c g     O .bss	00000004 __malloc_max_sbrked_mem
0800204c g     F .text	0000089c .hidden __adddf3
080131a4 g     F .text	00000074 .hidden __nesf2
0800e1f8 g     F .text	0000011c __b2d
08012c14 g     F .text	00000590 .hidden __umoddi3
08014740 g     F .text	000000d4 lseek
080233e8 g     O .rwdata	00000004 _global_impure_ptr
08000f70 g     F .text	000000b0 concat
08011e40 g     F .text	000005a0 _realloc_r
08025204 g       *ABS*	00000000 __bss_end
08016368 g     F .text	000000f0 alt_iic_isr_register
08014bc0 g     F .text	00000104 alt_tick
08025004 g     O .bss	00000100 __hexdig
08012654 g     F .text	000005c0 .hidden __udivdi3
08011500 g     F .text	00000184 _fputwc_r
0802172c g     O .rodata	00000028 __mprec_bigtens
0800d8c4 g     F .text	00000104 __s2b
08013e9c g     F .text	000000a4 .hidden __floatunsidf
0800dfa0 g     F .text	00000060 __mcmp
08000c10 g     F .text	00000044 message
0800bec4 g     F .text	00000018 __fp_lock_all
0801631c g     F .text	0000004c alt_ic_irq_enabled
08014b28 g     F .text	00000098 alt_alarm_stop
08017b7a g     O .rodata	0000140a Font16x27
08024fd8 g     O .bss	00000004 alt_irq_active
080000ec g     F .exceptions	000000d0 alt_irq_handler
080221ac g     O .rwdata	00000028 alt_dev_null
080013d0 g     F .text	000000a0 Drawline
080001f8 g     F .text	000001ac OutGraphicsCharFont1
08015d8c g     F .text	00000034 alt_up_character_lcd_cursor_blink_on
08015f00 g     F .text	0000001c alt_dcache_flush_all
0800d9c8 g     F .text	00000068 __hi0bits
080038d8 g     F .text	00000088 .hidden __fixdfsi
08005ccc g     F .text	0000001c strtod
08023420 g       *ABS*	00000000 __ram_rwdata_end
08023400 g     O .rwdata	00000008 alt_dev_list
08001634 g     F .text	000000ac write
0800e66c g     F .text	000000a0 _putc_r
08003bc0 g     F .text	00000008 atof
08013218 g     F .text	000000b8 .hidden __gtsf2
080218a8 g       *ABS*	00000000 __ram_rodata_end
08014274 g     F .text	000000b0 fstat
080134ec g     F .text	000000e0 .hidden __ledf2
08004538 g     F .text	00000088 strcat
080006b4 g     F .text	00000030 waitForTouch
0800dd18 g     F .text	00000140 __pow5mult
0800fd88 g     F .text	0000135c ___vfiprintf_internal_r
08024fb0 g     O .bss	00000004 __nlocale_changed
08003bb8 g     F .text	00000008 .hidden __umodsi3
08025204 g       *ABS*	00000000 end
08014f04 g     F .text	000000c4 altera_avalon_jtag_uart_init
08016e7c g       *ABS*	00000000 __CTOR_LIST__
0c000000 g       *ABS*	00000000 __alt_stack_pointer
08015860 g     F .text	00000088 alt_avalon_timer_sc_init
08000a84 g     F .text	0000003c Init_RS232WIFI
08003a30 g     F .text	00000064 .hidden __clzsi2
080155d4 g     F .text	00000218 altera_avalon_jtag_uart_write
080012bc g     F .text	000000a0 DrawVline
0800beb4 g     F .text	00000004 __sfp_lock_acquire
0800d39c g     F .text	000000e8 memchr
080015a0 g     F .text	00000058 waitFor
08015a0c g     F .text	00000078 alt_up_character_lcd_write
08007e84 g     F .text	00001ffc ___vfprintf_internal_r
08004474 g     F .text	00000058 _sprintf_r
0800c018 g     F .text	000002f0 _free_r
0800d18c g     F .text	00000010 __locale_mb_cur_max
08016c54 g     F .text	00000194 __call_exitprocs
08024fac g     O .bss	00000004 __mlocale_changed
08000ac0 g     F .text	00000050 putcharRS232WIFI
080233e0 g     O .rwdata	00000004 __malloc_sbrk_base
080001bc g     F .text	0000003c _start
08024fd0 g     O .bss	00000004 _alt_tick_rate
08000b10 g     F .text	00000048 getcharRS232WIFI
0800de58 g     F .text	00000148 __lshift
080007b8 g     F .text	0000015c getPoint
08001df4 g     F .text	00000078 touchBox
08024fd4 g     O .bss	00000004 _alt_nticks
0801491c g     F .text	000000fc read
08014d30 g     F .text	00000070 alt_sys_init
08015c44 g     F .text	00000088 alt_up_character_lcd_shift_display
0800ea44 g     F .text	000001c8 __ssprint_r
080011a8 g     F .text	000000a0 DrawHline
08016b40 g     F .text	00000114 __register_exitproc
0800e984 g     F .text	000000c0 strncmp
08000570 g     F .text	00000044 getCharRS232Touch
0800db1c g     F .text	000001fc __multiply
08000b58 g     F .text	00000030 RS232TestForReceivedDataWIFI
08015ccc g     F .text	0000008c alt_up_character_lcd_erase_pos
08015274 g     F .text	00000068 altera_avalon_jtag_uart_close
080218a8 g       *ABS*	00000000 __ram_rwdata_start
08016e7c g       *ABS*	00000000 __ram_rodata_start
08024fdc g     O .bss	00000028 __malloc_current_mallinfo
080131a4 g     F .text	00000074 .hidden __eqsf2
0800e314 g     F .text	0000013c __d2b
080005b4 g     F .text	0000004c putCharRS232Touch
08014da0 g     F .text	00000060 altera_avalon_jtag_uart_read_fd
08016938 g     F .text	000000b4 alt_get_fd
080112d4 g     F .text	00000054 _close_r
08005dec g     F .text	00000018 strtok
08016ac4 g     F .text	0000007c memcmp
08014e60 g     F .text	00000050 altera_avalon_jtag_uart_close_fd
08025204 g       *ABS*	00000000 __alt_stack_base
08014eb0 g     F .text	00000054 altera_avalon_jtag_uart_ioctl_fd
08009ea4 g     F .text	00000130 __swsetup_r
080028e8 g     F .text	000008cc .hidden __divdf3
0800bd74 g     F .text	00000118 __sfp
0800e568 g     F .text	00000078 __copybits
080218e0 g     O .rwdata	00000408 __malloc_av_
0800bec0 g     F .text	00000004 __sinit_lock_release
080031b4 g     F .text	00000724 .hidden __muldf3
0800e848 g     F .text	00000054 __sread
08016824 g     F .text	00000114 alt_find_file
08015f6c g     F .text	000000a4 alt_dev_llist_insert
0801488c g     F .text	00000020 __malloc_lock
08014a78 g     F .text	000000b0 sbrk
08005ea4 g     F .text	00001f90 ___svfprintf_internal_r
0800b8fc g     F .text	00000228 _fflush_r
08011328 g     F .text	000000c4 _calloc_r
08000c90 g     F .text	00000044 getCharRS232GPS
08014324 g     F .text	000001f4 gettimeofday
08000914 g     F .text	00000034 getTime
08024f98 g       *ABS*	00000000 __bss_start
0800d5bc g     F .text	00000124 memset
08001f0c g     F .text	00000140 main
08024fcc g     O .bss	00000004 alt_envp
08024f98 g     O .bss	00000004 __malloc_max_total_mem
08014e00 g     F .text	00000060 altera_avalon_jtag_uart_write_fd
0801125c g     F .text	0000001c __swbuf
080132d0 g     F .text	000000b8 .hidden __ltsf2
0800109c g     F .text	00000090 ReadAPixel
08015bbc g     F .text	00000088 alt_up_character_lcd_shift_cursor
0800e97c g     F .text	00000008 __sclose
0c000000 g       *ABS*	00000000 __alt_heap_limit
080114ec g     F .text	00000014 fclose
08013f40 g     F .text	00000198 .hidden __truncdfsf2
0800a1d4 g     F .text	00001728 _dtoa_r
08003bf0 g     F .text	000007a8 _malloc_r
08012554 g     F .text	00000030 __ascii_wctomb
08007e34 g     F .text	00000050 time
0802340c g     O .rwdata	00000004 alt_errno
0800c308 g     F .text	000000b8 _fwalk
080006e4 g     F .text	00000058 screenReleased
080019c4 g     F .text	00000430 drawBox2
0800e70c g     F .text	000000c8 putc
08003b00 g     F .text	00000054 .hidden __divsi3
080159cc g     F .text	00000040 alt_up_character_lcd_open_dev
0800bef4 g     F .text	00000124 _malloc_trim_r
08016e7c g       *ABS*	00000000 __CTOR_END__
08015998 g     F .text	00000034 alt_up_character_lcd_init
080045c0 g     F .text	000000a4 strcmp
08016e7c g       *ABS*	00000000 __flash_rodata_start
08016e7c g       *ABS*	00000000 __DTOR_LIST__
0800073c g     F .text	00000030 waitForRelease
08013388 g     F .text	00000084 .hidden __nedf2
08014cfc g     F .text	00000034 alt_irq_init
08014a18 g     F .text	00000060 alt_release_fd
080044cc g     F .text	0000006c sprintf
08015d58 g     F .text	00000034 alt_up_character_lcd_cursor_off
08021500 g     O .rodata	00000100 .hidden __clz_tab
08024fa8 g     O .bss	00000004 _PathLocale
08005ce8 g     F .text	00000104 strtof
08016a78 g     F .text	00000014 atexit
08000d20 g     F .text	00000250 getGPSdata
08013218 g     F .text	000000b8 .hidden __gesf2
08011278 g     F .text	0000005c _write_r
0800d1bc g     F .text	0000001c setlocale
08000cd4 g     F .text	0000004c putCharRS232GPS
080233ec g     O .rwdata	00000004 _impure_ptr
08024fc4 g     O .bss	00000004 alt_argc
08001020 g     F .text	0000007c WriteAPixel
0801606c g     F .text	0000005c _do_dtors
0800d1a8 g     F .text	00000008 __locale_cjk_lang
08016e7c g     O .rodata	00000299 Font5x7
08000020 g       .exceptions	00000000 alt_irq_entry
0800e198 g     F .text	00000060 __ulp
0800bedc g     F .text	00000018 __fp_unlock_all
080233f8 g     O .rwdata	00000008 alt_fs_list
08001e6c g     F .text	00000050 getGPSmessage
080009fc g     F .text	00000044 getPress
08024fbc g     O .bss	00000008 alt_resettime
08000020 g       *ABS*	00000000 __ram_exceptions_start
0800d1d8 g     F .text	0000000c localeconv
08016188 g     F .text	00000050 alt_ic_isr_register
0800c578 g     F .text	00000084 __hexdig_init
08023420 g       *ABS*	00000000 _edata
08025204 g       *ABS*	00000000 _end
080001bc g       *ABS*	00000000 __ram_exceptions_end
080152dc g     F .text	000000ec altera_avalon_jtag_uart_ioctl
08016278 g     F .text	000000a4 alt_ic_irq_disable
080218a8 g     O .rwdata	00000020 initialize
08000c54 g     F .text	0000003c initRS232GPS
0800e8a4 g     F .text	0000007c __swrite
080233e4 g     O .rwdata	00000004 __malloc_trim_threshold
08016804 g     F .text	00000020 altera_nios2_qsys_irq_init
0800d19c g     F .text	0000000c __locale_msgcharset
08016a8c g     F .text	00000038 exit
0800c3c0 g     F .text	000000b8 _fwalk_reent
0800e000 g     F .text	00000198 __mdiff
08001470 g     F .text	0000008c DrawSolidRectangle
08003b54 g     F .text	0000005c .hidden __modsi3
0c000000 g       *ABS*	00000000 __alt_data_end
08000020 g     F .exceptions	00000000 alt_exception
0800beb8 g     F .text	00000004 __sfp_lock_release
08000000 g       *ABS*	00000000 __alt_mem_sdram
08015a84 g     F .text	00000074 alt_up_character_lcd_string
08018f84 g     O .rodata	00002c88 Font22x40
08016e48 g     F .text	00000034 _exit
08015dc0 g     F .text	00000140 alt_alarm_start
08016de8 g     F .text	00000060 .hidden __muldi3
08000b88 g     F .text	00000088 putString
0800d1e4 g     F .text	000001b8 __smakebuf_r
080046f4 g     F .text	00000098 strlen
080166ac g     F .text	00000158 open
0801340c g     F .text	000000e0 .hidden __gedf2
0800c5fc g     F .text	0000081c __gethex
080015f8 g     F .text	0000003c clearScreen
080233f4 g     O .rwdata	00000004 __wctomb
080014fc g     F .text	000000a4 DrawRectangle
0800fd70 g     F .text	00000018 __sprint_r
08016158 g     F .text	00000030 alt_icache_flush_all
08015b48 g     F .text	00000074 alt_up_character_lcd_set_cursor_pos
0802341c g     O .rwdata	00000004 alt_priority_mask
080161d8 g     F .text	000000a0 alt_ic_irq_enable
08009e80 g     F .text	00000024 __vfprintf_internal
08012584 g     F .text	0000005c _wctomb_r
080135cc g     F .text	000008d0 .hidden __subdf3
0800da30 g     F .text	000000b0 __lo0bits
08023414 g     O .rwdata	00000008 alt_alarm_list
08016010 g     F .text	0000005c _do_ctors
0801247c g     F .text	000000d8 wcrtomb
08014128 g     F .text	000000d0 close
08014670 g     F .text	00000080 alt_load
0800076c g     F .text	0000004c check_bounds
08000600 g     F .text	00000064 initTouchScreen
08011684 g     F .text	00000058 fputwc
08003bdc g     F .text	00000014 free
0800bebc g     F .text	00000004 __sinit_lock_acquire
0800d7b0 g     F .text	00000114 __multadd
0800d788 g     F .text	00000028 _Bfree



Disassembly of section .entry:

08000000 <__reset>:
#if NIOS2_ICACHE_SIZE > 0 && defined(ALT_ALLOW_CODE_AT_RESET) && !defined(ALT_SIM_OPTIMIZE)
    /* Assume the instruction cache size is always a power of two. */
#if NIOS2_ICACHE_SIZE > 0x8000
    movhi r2, %hi(NIOS2_ICACHE_SIZE)
#else
    movui r2, NIOS2_ICACHE_SIZE
 8000000:	00840014 	movui	r2,4096
#endif

0:
    initi r2
 8000004:	1001483a 	initi	r2
    addi r2, r2, -NIOS2_ICACHE_LINE_SIZE
 8000008:	10bff804 	addi	r2,r2,-32
    bgt r2, zero, 0b
 800000c:	00bffd16 	blt	zero,r2,8000004 <__alt_data_end+0xfc000004>
 * Jump to the _start entry point in the .text section if reset code
 * is allowed or if optimizing for RTL simulation.
 */
#if defined(ALT_ALLOW_CODE_AT_RESET) || defined(ALT_SIM_OPTIMIZE)
    /* Jump to the _start entry point in the .text section. */
    movhi r1, %hi(_start)
 8000010:	00420034 	movhi	at,2048
    ori r1, r1, %lo(_start)
 8000014:	08406f14 	ori	at,at,444
    jmp r1
 8000018:	0800683a 	jmp	at
 800001c:	00000000 	call	0 <__reset-0x8000000>

Disassembly of section .exceptions:

08000020 <alt_exception>:

#else /* ALT_EXCEPTION_STACK disabled */
        /* 
         * Reserve space on normal stack for registers about to be pushed.
         */
        addi  sp, sp, -76
 8000020:	deffed04 	addi	sp,sp,-76
         * documentation for details).
         *
         * Leave a gap in the stack frame at 4(sp) for the muldiv handler to
         * store zero into.
         */
        stw   ra,  0(sp)
 8000024:	dfc00015 	stw	ra,0(sp)
        stw   r1,   8(sp)
 8000028:	d8400215 	stw	at,8(sp)
        stw   r2,  12(sp)
 800002c:	d8800315 	stw	r2,12(sp)
        stw   r3,  16(sp)
 8000030:	d8c00415 	stw	r3,16(sp)
        stw   r4,  20(sp)
 8000034:	d9000515 	stw	r4,20(sp)
        stw   r5,  24(sp)
 8000038:	d9400615 	stw	r5,24(sp)
        stw   r6,  28(sp)
 800003c:	d9800715 	stw	r6,28(sp)
        stw   r7,  32(sp)
 8000040:	d9c00815 	stw	r7,32(sp)
        rdctl r5, estatus   /* Read early to avoid usage stall */
 8000044:	000b307a 	rdctl	r5,estatus
        stw   r8,  36(sp)
 8000048:	da000915 	stw	r8,36(sp)
        stw   r9,  40(sp)
 800004c:	da400a15 	stw	r9,40(sp)
        stw   r10, 44(sp)
 8000050:	da800b15 	stw	r10,44(sp)
        stw   r11, 48(sp)
 8000054:	dac00c15 	stw	r11,48(sp)
        stw   r12, 52(sp)
 8000058:	db000d15 	stw	r12,52(sp)
        stw   r13, 56(sp)
 800005c:	db400e15 	stw	r13,56(sp)
        stw   r14, 60(sp)
 8000060:	db800f15 	stw	r14,60(sp)
        stw   r15, 64(sp)
 8000064:	dbc01015 	stw	r15,64(sp)
        /*
         * ea-4 contains the address of the instruction being executed
         * when the exception occured. For interrupt exceptions, we will
         * will be re-issue the isntruction. Store it in 72(sp)
         */
        stw   r5,  68(sp)  /* estatus */
 8000068:	d9401115 	stw	r5,68(sp)
        addi  r15, ea, -4  /* instruction that caused exception */
 800006c:	ebffff04 	addi	r15,ea,-4
        stw   r15,  72(sp)
 8000070:	dbc01215 	stw	r15,72(sp)
#else
        /*
         * Test to see if the exception was a software exception or caused 
         * by an external interrupt, and vector accordingly.
         */
        rdctl r4, ipending
 8000074:	0009313a 	rdctl	r4,ipending
        andi  r2, r5, 1
 8000078:	2880004c 	andi	r2,r5,1
        beq   r2, zero, .Lnot_irq
 800007c:	10000326 	beq	r2,zero,800008c <alt_exception+0x6c>
        beq   r4, zero, .Lnot_irq
 8000080:	20000226 	beq	r4,zero,800008c <alt_exception+0x6c>
        /*
         * Now that all necessary registers have been preserved, call 
         * alt_irq_handler() to process the interrupts.
         */

        call alt_irq_handler
 8000084:	80000ec0 	call	80000ec <alt_irq_handler>

        .section .exceptions.irqreturn, "xa"

        br    .Lexception_exit
 8000088:	00000306 	br	8000098 <alt_exception_unknown+0x4>
         * upon completion, so we write ea (address of instruction *after*
         * the one where the exception occured) into 72(sp). The actual
         * instruction that caused the exception is written in r2, which these
         * handlers will utilize.
         */
        stw   ea,  72(sp)  /* Don't re-issue */
 800008c:	df401215 	stw	ea,72(sp)
        ldw   r2, -4(ea)   /* Instruction that caused exception */
 8000090:	e8bfff17 	ldw	r2,-4(ea)

08000094 <alt_exception_unknown>:
#ifdef NIOS2_HAS_DEBUG_STUB
       /*
        *  Either tell the user now (if there is a debugger attached) or go into
        *  the debug monitor which will loop until a debugger is attached.
        */
        break
 8000094:	003da03a 	break	0
        /* 
         * Restore the saved registers, so that all general purpose registers 
         * have been restored to their state at the time the interrupt occured.
         */

        ldw   r5,  68(sp)
 8000098:	d9401117 	ldw	r5,68(sp)
        ldw   ea,  72(sp)  /* This becomes the PC once eret is executed */
 800009c:	df401217 	ldw	ea,72(sp)
        ldw   ra,   0(sp)
 80000a0:	dfc00017 	ldw	ra,0(sp)

        wrctl estatus, r5
 80000a4:	2801707a 	wrctl	estatus,r5

        ldw   r1,   8(sp)
 80000a8:	d8400217 	ldw	at,8(sp)
        ldw   r2,  12(sp)
 80000ac:	d8800317 	ldw	r2,12(sp)
        ldw   r3,  16(sp)
 80000b0:	d8c00417 	ldw	r3,16(sp)
        ldw   r4,  20(sp)
 80000b4:	d9000517 	ldw	r4,20(sp)
        ldw   r5,  24(sp)
 80000b8:	d9400617 	ldw	r5,24(sp)
        ldw   r6,  28(sp)
 80000bc:	d9800717 	ldw	r6,28(sp)
        ldw   r7,  32(sp)
 80000c0:	d9c00817 	ldw	r7,32(sp)

#if defined(ALT_EXCEPTION_STACK) && defined(ALT_STACK_CHECK)
        ldw   et, %gprel(alt_exception_old_stack_limit)(gp)
#endif

        ldw   r8,  36(sp)
 80000c4:	da000917 	ldw	r8,36(sp)
        ldw   r9,  40(sp)
 80000c8:	da400a17 	ldw	r9,40(sp)
        ldw   r10, 44(sp)
 80000cc:	da800b17 	ldw	r10,44(sp)
        ldw   r11, 48(sp)
 80000d0:	dac00c17 	ldw	r11,48(sp)
        ldw   r12, 52(sp)
 80000d4:	db000d17 	ldw	r12,52(sp)
        ldw   r13, 56(sp)
 80000d8:	db400e17 	ldw	r13,56(sp)
        ldw   r14, 60(sp)
 80000dc:	db800f17 	ldw	r14,60(sp)
        ldw   r15, 64(sp)
 80000e0:	dbc01017 	ldw	r15,64(sp)
        stw   et, %gprel(alt_stack_limit_value)(gp)
        stw   zero, %gprel(alt_exception_old_stack_limit)(gp)
#endif /* ALT_STACK_CHECK */
        ldw   sp,  76(sp)
#else /* ALT_EXCEPTION_STACK disabled */
        addi  sp, sp, 76
 80000e4:	dec01304 	addi	sp,sp,76

        /*
         * Return to the interrupted instruction.
         */

        eret
 80000e8:	ef80083a 	eret

080000ec <alt_irq_handler>:
 * instruction is present if the macro ALT_CI_INTERRUPT_VECTOR defined.
 */

void alt_irq_handler (void) __attribute__ ((section (".exceptions")));
void alt_irq_handler (void)
{
 80000ec:	defff904 	addi	sp,sp,-28
 80000f0:	dfc00615 	stw	ra,24(sp)
 80000f4:	df000515 	stw	fp,20(sp)
 80000f8:	df000504 	addi	fp,sp,20
  
  /*
   * Notify the operating system that we are at interrupt level.
   */ 
  
  ALT_OS_INT_ENTER();
 80000fc:	0001883a 	nop
#ifndef NIOS2_EIC_PRESENT
static ALT_INLINE alt_u32 ALT_ALWAYS_INLINE alt_irq_pending (void)
{
  alt_u32 active;

  NIOS2_READ_IPENDING (active);
 8000100:	0005313a 	rdctl	r2,ipending
 8000104:	e0bffe15 	stw	r2,-8(fp)

  return active;
 8000108:	e0bffe17 	ldw	r2,-8(fp)
   * Consider the case where the high priority interupt is asserted during
   * the interrupt entry sequence for a lower priority interrupt to see why
   * this is the case.
   */

  active = alt_irq_pending ();
 800010c:	e0bffb15 	stw	r2,-20(fp)

  do
  {
    i = 0;
 8000110:	e03ffd15 	stw	zero,-12(fp)
    mask = 1;
 8000114:	00800044 	movi	r2,1
 8000118:	e0bffc15 	stw	r2,-16(fp)
     * called to clear the interrupt condition.
     */

    do
    {
      if (active & mask)
 800011c:	e0fffb17 	ldw	r3,-20(fp)
 8000120:	e0bffc17 	ldw	r2,-16(fp)
 8000124:	1884703a 	and	r2,r3,r2
 8000128:	10001426 	beq	r2,zero,800017c <alt_irq_handler+0x90>
      { 
#ifdef ALT_ENHANCED_INTERRUPT_API_PRESENT
        alt_irq[i].handler(alt_irq[i].context); 
 800012c:	008200b4 	movhi	r2,2050
 8000130:	10944104 	addi	r2,r2,20740
 8000134:	e0fffd17 	ldw	r3,-12(fp)
 8000138:	180690fa 	slli	r3,r3,3
 800013c:	10c5883a 	add	r2,r2,r3
 8000140:	10c00017 	ldw	r3,0(r2)
 8000144:	008200b4 	movhi	r2,2050
 8000148:	10944104 	addi	r2,r2,20740
 800014c:	e13ffd17 	ldw	r4,-12(fp)
 8000150:	200890fa 	slli	r4,r4,3
 8000154:	1105883a 	add	r2,r2,r4
 8000158:	10800104 	addi	r2,r2,4
 800015c:	10800017 	ldw	r2,0(r2)
 8000160:	1009883a 	mov	r4,r2
 8000164:	183ee83a 	callr	r3
#else
        alt_irq[i].handler(alt_irq[i].context, i); 
#endif
        break;
 8000168:	0001883a 	nop
#ifndef NIOS2_EIC_PRESENT
static ALT_INLINE alt_u32 ALT_ALWAYS_INLINE alt_irq_pending (void)
{
  alt_u32 active;

  NIOS2_READ_IPENDING (active);
 800016c:	0005313a 	rdctl	r2,ipending
 8000170:	e0bfff15 	stw	r2,-4(fp)

  return active;
 8000174:	e0bfff17 	ldw	r2,-4(fp)
 8000178:	00000706 	br	8000198 <alt_irq_handler+0xac>
      }
      mask <<= 1;
 800017c:	e0bffc17 	ldw	r2,-16(fp)
 8000180:	1085883a 	add	r2,r2,r2
 8000184:	e0bffc15 	stw	r2,-16(fp)
      i++;
 8000188:	e0bffd17 	ldw	r2,-12(fp)
 800018c:	10800044 	addi	r2,r2,1
 8000190:	e0bffd15 	stw	r2,-12(fp)

    } while (1);
 8000194:	003fe106 	br	800011c <__alt_data_end+0xfc00011c>

    active = alt_irq_pending ();
 8000198:	e0bffb15 	stw	r2,-20(fp)
    
  } while (active);
 800019c:	e0bffb17 	ldw	r2,-20(fp)
 80001a0:	103fdb1e 	bne	r2,zero,8000110 <__alt_data_end+0xfc000110>

  /*
   * Notify the operating system that interrupt processing is complete.
   */ 

  ALT_OS_INT_EXIT();
 80001a4:	0001883a 	nop
}
 80001a8:	e037883a 	mov	sp,fp
 80001ac:	dfc00117 	ldw	ra,4(sp)
 80001b0:	df000017 	ldw	fp,0(sp)
 80001b4:	dec00204 	addi	sp,sp,8
 80001b8:	f800283a 	ret

Disassembly of section .text:

080001bc <_start>:

    /*
     * Now that the caches are initialized, set up the stack pointer and global pointer.
     * The values provided by the linker are assumed to be correctly aligned.
     */
    movhi sp, %hi(__alt_stack_pointer)
 80001bc:	06c30034 	movhi	sp,3072
    ori sp, sp, %lo(__alt_stack_pointer)
 80001c0:	dec00014 	ori	sp,sp,0
    movhi gp, %hi(_gp)
 80001c4:	068200b4 	movhi	gp,2050
    ori gp, gp, %lo(_gp)
 80001c8:	d6acf814 	ori	gp,gp,46048
 */
#ifndef ALT_SIM_OPTIMIZE
    /* Log that the BSS is about to be cleared. */
    ALT_LOG_PUTS(alt_log_msg_bss)

    movhi r2, %hi(__bss_start)
 80001cc:	008200b4 	movhi	r2,2050
    ori r2, r2, %lo(__bss_start)
 80001d0:	1093e614 	ori	r2,r2,20376

    movhi r3, %hi(__bss_end)
 80001d4:	00c200b4 	movhi	r3,2050
    ori r3, r3, %lo(__bss_end)
 80001d8:	18d48114 	ori	r3,r3,20996

    beq r2, r3, 1f
 80001dc:	10c00326 	beq	r2,r3,80001ec <_start+0x30>

0:
    stw zero, (r2)
 80001e0:	10000015 	stw	zero,0(r2)
    addi r2, r2, 4
 80001e4:	10800104 	addi	r2,r2,4
    bltu r2, r3, 0b
 80001e8:	10fffd36 	bltu	r2,r3,80001e0 <__alt_data_end+0xfc0001e0>
     * section aren't defined until alt_load() has been called).
     */
    mov   et, zero
#endif

    call alt_load
 80001ec:	80146700 	call	8014670 <alt_load>

    /* Log that alt_main is about to be called. */
    ALT_LOG_PUTS(alt_log_msg_alt_main)

    /* Call the C entry point. It should never return. */
    call alt_main
 80001f0:	80148140 	call	8014814 <alt_main>

080001f4 <alt_after_alt_main>:

    /* Wait in infinite loop in case alt_main does return. */
alt_after_alt_main:
    br alt_after_alt_main
 80001f4:	003fff06 	br	80001f4 <__alt_data_end+0xfc0001f4>

080001f8 <OutGraphicsCharFont1>:
#define YRES 480
#define TRUE 1
#include "Fonts.h"

void OutGraphicsCharFont1(int x, int y, int fontcolour, int backgroundcolour, int c, int Erase)
{
 80001f8:	defff204 	addi	sp,sp,-56
 80001fc:	dfc00d15 	stw	ra,52(sp)
 8000200:	df000c15 	stw	fp,48(sp)
 8000204:	ddc00b15 	stw	r23,44(sp)
 8000208:	dd800a15 	stw	r22,40(sp)
 800020c:	dd400915 	stw	r21,36(sp)
 8000210:	dd000815 	stw	r20,32(sp)
 8000214:	dcc00715 	stw	r19,28(sp)
 8000218:	dc800615 	stw	r18,24(sp)
 800021c:	dc400515 	stw	r17,20(sp)
 8000220:	dc000415 	stw	r16,16(sp)
 8000224:	df000c04 	addi	fp,sp,48
 8000228:	e13ff415 	stw	r4,-48(fp)
 800022c:	e17ff515 	stw	r5,-44(fp)
 8000230:	e1bff615 	stw	r6,-40(fp)
 8000234:	e1fff715 	stw	r7,-36(fp)
// using register variables (as opposed to stack based ones) may make execution faster
// depends on compiler and CPU

	register int row, column, theX = x, theY = y ;
 8000238:	e53ff417 	ldw	r20,-48(fp)
 800023c:	e57ff517 	ldw	r21,-44(fp)
	register int pixels ;
	register char theColour = fontcolour  ;
 8000240:	e0bff617 	ldw	r2,-40(fp)
 8000244:	102f883a 	mov	r23,r2
	register int BitMask, theC = c ;
 8000248:	e4400217 	ldw	r17,8(fp)

// if x,y coord off edge of screen don't bother
// XRES and YRES are #defined to be 800 and 480 respectively
    if(((short)(x) > (short)(XRES-1)) || ((short)(y) > (short)(YRES-1)))
 800024c:	e0bff417 	ldw	r2,-48(fp)
 8000250:	10bfffcc 	andi	r2,r2,65535
 8000254:	10a0001c 	xori	r2,r2,32768
 8000258:	10a00004 	addi	r2,r2,-32768
 800025c:	1080c808 	cmpgei	r2,r2,800
 8000260:	1000061e 	bne	r2,zero,800027c <OutGraphicsCharFont1+0x84>
 8000264:	e0bff517 	ldw	r2,-44(fp)
 8000268:	10bfffcc 	andi	r2,r2,65535
 800026c:	10a0001c 	xori	r2,r2,32768
 8000270:	10a00004 	addi	r2,r2,-32768
 8000274:	10807810 	cmplti	r2,r2,480
 8000278:	1000011e 	bne	r2,zero,8000280 <OutGraphicsCharFont1+0x88>
        return ;
 800027c:	00003c06 	br	8000370 <OutGraphicsCharFont1+0x178>


// if printable character subtract hex 20
	if(((short)(theC) >= (short)(' ')) && ((short)(theC) <= (short)('~'))) {
 8000280:	8805883a 	mov	r2,r17
 8000284:	10bfffcc 	andi	r2,r2,65535
 8000288:	10a0001c 	xori	r2,r2,32768
 800028c:	10a00004 	addi	r2,r2,-32768
 8000290:	10800810 	cmplti	r2,r2,32
 8000294:	1000361e 	bne	r2,zero,8000370 <OutGraphicsCharFont1+0x178>
 8000298:	8805883a 	mov	r2,r17
 800029c:	10bfffcc 	andi	r2,r2,65535
 80002a0:	10a0001c 	xori	r2,r2,32768
 80002a4:	10a00004 	addi	r2,r2,-32768
 80002a8:	10801fc8 	cmpgei	r2,r2,127
 80002ac:	1000301e 	bne	r2,zero,8000370 <OutGraphicsCharFont1+0x178>
		theC = theC - 0x20 ;
 80002b0:	8c7ff804 	addi	r17,r17,-32
		for(row = 0; (char)(row) < (char)(7); row ++)	{
 80002b4:	0021883a 	mov	r16,zero
 80002b8:	00002706 	br	8000358 <OutGraphicsCharFont1+0x160>

// get the bit pattern for row 0 of the character from the software font
			pixels = Font5x7[theC][row] ;
 80002bc:	00820074 	movhi	r2,2049
 80002c0:	109b9f04 	addi	r2,r2,28284
 80002c4:	88c001e4 	muli	r3,r17,7
 80002c8:	1c07883a 	add	r3,r3,r16
 80002cc:	10c5883a 	add	r2,r2,r3
 80002d0:	10800003 	ldbu	r2,0(r2)
 80002d4:	15803fcc 	andi	r22,r2,255
			BitMask = 16 ;
 80002d8:	04c00404 	movi	r19,16

			for(column = 0; (char)(column) < (char)(5); column ++)	{
 80002dc:	0025883a 	mov	r18,zero
 80002e0:	00001606 	br	800033c <OutGraphicsCharFont1+0x144>

// if a pixel in the character display it
				if((pixels & BitMask))
 80002e4:	b4c4703a 	and	r2,r22,r19
 80002e8:	10000926 	beq	r2,zero,8000310 <OutGraphicsCharFont1+0x118>
					WriteAPixel(theX+column, theY+row, theColour) ;
 80002ec:	a489883a 	add	r4,r20,r18
 80002f0:	ac07883a 	add	r3,r21,r16
 80002f4:	b8803fcc 	andi	r2,r23,255
 80002f8:	1080201c 	xori	r2,r2,128
 80002fc:	10bfe004 	addi	r2,r2,-128
 8000300:	180b883a 	mov	r5,r3
 8000304:	100d883a 	mov	r6,r2
 8000308:	80010200 	call	8001020 <WriteAPixel>
 800030c:	00000906 	br	8000334 <OutGraphicsCharFont1+0x13c>

				else {
					if(Erase == TRUE)
 8000310:	e0800317 	ldw	r2,12(fp)
 8000314:	10800058 	cmpnei	r2,r2,1
 8000318:	1000061e 	bne	r2,zero,8000334 <OutGraphicsCharFont1+0x13c>

// if pixel is part of background (not part of character)
// erase the background to value of variable BackGroundColour

						WriteAPixel(theX+column, theY+row, backgroundcolour) ;
 800031c:	a487883a 	add	r3,r20,r18
 8000320:	ac05883a 	add	r2,r21,r16
 8000324:	1809883a 	mov	r4,r3
 8000328:	100b883a 	mov	r5,r2
 800032c:	e1bff717 	ldw	r6,-36(fp)
 8000330:	80010200 	call	8001020 <WriteAPixel>
				}
				BitMask = BitMask >> 1 ;
 8000334:	9827d07a 	srai	r19,r19,1

// get the bit pattern for row 0 of the character from the software font
			pixels = Font5x7[theC][row] ;
			BitMask = 16 ;

			for(column = 0; (char)(column) < (char)(5); column ++)	{
 8000338:	94800044 	addi	r18,r18,1
 800033c:	9005883a 	mov	r2,r18
 8000340:	10803fcc 	andi	r2,r2,255
 8000344:	1080201c 	xori	r2,r2,128
 8000348:	10bfe004 	addi	r2,r2,-128
 800034c:	10800150 	cmplti	r2,r2,5
 8000350:	103fe41e 	bne	r2,zero,80002e4 <__alt_data_end+0xfc0002e4>


// if printable character subtract hex 20
	if(((short)(theC) >= (short)(' ')) && ((short)(theC) <= (short)('~'))) {
		theC = theC - 0x20 ;
		for(row = 0; (char)(row) < (char)(7); row ++)	{
 8000354:	84000044 	addi	r16,r16,1
 8000358:	8005883a 	mov	r2,r16
 800035c:	10803fcc 	andi	r2,r2,255
 8000360:	1080201c 	xori	r2,r2,128
 8000364:	10bfe004 	addi	r2,r2,-128
 8000368:	108001d0 	cmplti	r2,r2,7
 800036c:	103fd31e 	bne	r2,zero,80002bc <__alt_data_end+0xfc0002bc>
				}
				BitMask = BitMask >> 1 ;
			}
		}
	}
}
 8000370:	e6fff804 	addi	sp,fp,-32
 8000374:	dfc00917 	ldw	ra,36(sp)
 8000378:	df000817 	ldw	fp,32(sp)
 800037c:	ddc00717 	ldw	r23,28(sp)
 8000380:	dd800617 	ldw	r22,24(sp)
 8000384:	dd400517 	ldw	r21,20(sp)
 8000388:	dd000417 	ldw	r20,16(sp)
 800038c:	dcc00317 	ldw	r19,12(sp)
 8000390:	dc800217 	ldw	r18,8(sp)
 8000394:	dc400117 	ldw	r17,4(sp)
 8000398:	dc000017 	ldw	r16,0(sp)
 800039c:	dec00a04 	addi	sp,sp,40
 80003a0:	f800283a 	ret

080003a4 <OutGraphicsCharFont2a>:
** OutGraphicsCharFont2(100,100, RED, 'A', TRUE, FALSE, 1, 1) ;	// display upper case 'A' in RED at coords 100,100, erase background
** no scroll, scale x,y= 1,1
**
******************************************************************************************************************************/
void OutGraphicsCharFont2a(int x, int y, int colour, int backgroundcolour, int c, int Erase)
{
 80003a4:	defff004 	addi	sp,sp,-64
 80003a8:	dfc00f15 	stw	ra,60(sp)
 80003ac:	df000e15 	stw	fp,56(sp)
 80003b0:	ddc00d15 	stw	r23,52(sp)
 80003b4:	dd800c15 	stw	r22,48(sp)
 80003b8:	dd400b15 	stw	r21,44(sp)
 80003bc:	dd000a15 	stw	r20,40(sp)
 80003c0:	dcc00915 	stw	r19,36(sp)
 80003c4:	dc800815 	stw	r18,32(sp)
 80003c8:	dc400715 	stw	r17,28(sp)
 80003cc:	dc000615 	stw	r16,24(sp)
 80003d0:	df000e04 	addi	fp,sp,56
 80003d4:	e13ff215 	stw	r4,-56(fp)
 80003d8:	e17ff315 	stw	r5,-52(fp)
 80003dc:	e1bff415 	stw	r6,-48(fp)
 80003e0:	e1fff515 	stw	r7,-44(fp)
	register int 	row,
					column,
					theX = x,
 80003e4:	e53ff217 	ldw	r20,-56(fp)
					theY = y ;
 80003e8:	e57ff317 	ldw	r21,-52(fp)
	register int 	pixels ;
	register char 	theColour = colour  ;
 80003ec:	e0bff417 	ldw	r2,-48(fp)
 80003f0:	e0bff605 	stb	r2,-40(fp)
	register int 	BitMask,
					theCharacter = c,
 80003f4:	e4800217 	ldw	r18,8(fp)
					j,
					theRow, theColumn;

    if(((short)(x) > (short)(XRES-1)) || ((short)(y) > (short)(YRES-1)))  // if start off edge of screen don't bother
 80003f8:	e0bff217 	ldw	r2,-56(fp)
 80003fc:	10bfffcc 	andi	r2,r2,65535
 8000400:	10a0001c 	xori	r2,r2,32768
 8000404:	10a00004 	addi	r2,r2,-32768
 8000408:	1080c808 	cmpgei	r2,r2,800
 800040c:	1000061e 	bne	r2,zero,8000428 <OutGraphicsCharFont2a+0x84>
 8000410:	e0bff317 	ldw	r2,-52(fp)
 8000414:	10bfffcc 	andi	r2,r2,65535
 8000418:	10a0001c 	xori	r2,r2,32768
 800041c:	10a00004 	addi	r2,r2,-32768
 8000420:	10807810 	cmplti	r2,r2,480
 8000424:	1000011e 	bne	r2,zero,800042c <OutGraphicsCharFont2a+0x88>
        return ;
 8000428:	00003506 	br	8000500 <OutGraphicsCharFont2a+0x15c>

	if(((short)(theCharacter) >= (short)(' ')) && ((short)(theCharacter) <= (short)('~'))) {			// if printable character
 800042c:	9005883a 	mov	r2,r18
 8000430:	10bfffcc 	andi	r2,r2,65535
 8000434:	10a0001c 	xori	r2,r2,32768
 8000438:	10a00004 	addi	r2,r2,-32768
 800043c:	10800810 	cmplti	r2,r2,32
 8000440:	10002f1e 	bne	r2,zero,8000500 <OutGraphicsCharFont2a+0x15c>
 8000444:	9005883a 	mov	r2,r18
 8000448:	10bfffcc 	andi	r2,r2,65535
 800044c:	10a0001c 	xori	r2,r2,32768
 8000450:	10a00004 	addi	r2,r2,-32768
 8000454:	10801fc8 	cmpgei	r2,r2,127
 8000458:	1000291e 	bne	r2,zero,8000500 <OutGraphicsCharFont2a+0x15c>
		theCharacter -= 0x20 ;																			// subtract hex 20 to get index of first printable character (the space character)
 800045c:	94bff804 	addi	r18,r18,-32
		theRow = FONT2_YPIXELS;
 8000460:	05800384 	movi	r22,14
		theColumn = FONT2_XPIXELS;
 8000464:	05c00284 	movi	r23,10

		for(row = 0; row < theRow ; row ++)	{
 8000468:	0021883a 	mov	r16,zero
 800046c:	00002306 	br	80004fc <OutGraphicsCharFont2a+0x158>
			pixels = Font10x14[theCharacter][row] ;		     								// get the pixels for row 0 of the character to be displayed
 8000470:	00820074 	movhi	r2,2049
 8000474:	109c4584 	addi	r2,r2,28950
 8000478:	90c003a4 	muli	r3,r18,14
 800047c:	1c07883a 	add	r3,r3,r16
 8000480:	18c7883a 	add	r3,r3,r3
 8000484:	10c5883a 	add	r2,r2,r3
 8000488:	1080000b 	ldhu	r2,0(r2)
 800048c:	10bfffcc 	andi	r2,r2,65535
 8000490:	e0bff715 	stw	r2,-36(fp)
			BitMask = 512 ;							   											// set of hex 200 i.e. bit 7-0 = 0010 0000 0000
 8000494:	04c08004 	movi	r19,512
			for(column = 0; column < theColumn;   )  	{
 8000498:	0023883a 	mov	r17,zero
 800049c:	00001506 	br	80004f4 <OutGraphicsCharFont2a+0x150>
				if((pixels & BitMask))														// if valid pixel, then write it
 80004a0:	e0fff717 	ldw	r3,-36(fp)
 80004a4:	1cc4703a 	and	r2,r3,r19
 80004a8:	10000726 	beq	r2,zero,80004c8 <OutGraphicsCharFont2a+0x124>
					WriteAPixel(theX+column, theY+row, theColour) ;
 80004ac:	a449883a 	add	r4,r20,r17
 80004b0:	ac07883a 	add	r3,r21,r16
 80004b4:	e0bff607 	ldb	r2,-40(fp)
 80004b8:	180b883a 	mov	r5,r3
 80004bc:	100d883a 	mov	r6,r2
 80004c0:	80010200 	call	8001020 <WriteAPixel>
 80004c4:	00000906 	br	80004ec <OutGraphicsCharFont2a+0x148>
				else {																		// if not a valid pixel, do we erase or leave it along (no erase)
					if(Erase == TRUE)
 80004c8:	e0800317 	ldw	r2,12(fp)
 80004cc:	10800058 	cmpnei	r2,r2,1
 80004d0:	1000061e 	bne	r2,zero,80004ec <OutGraphicsCharFont2a+0x148>
						WriteAPixel(theX+column, theY+row, backgroundcolour) ;
 80004d4:	a447883a 	add	r3,r20,r17
 80004d8:	ac05883a 	add	r2,r21,r16
 80004dc:	1809883a 	mov	r4,r3
 80004e0:	100b883a 	mov	r5,r2
 80004e4:	e1bff517 	ldw	r6,-44(fp)
 80004e8:	80010200 	call	8001020 <WriteAPixel>
					// else leave it alone
				}
					column ++ ;
 80004ec:	8c400044 	addi	r17,r17,1
				BitMask = BitMask >> 1 ;
 80004f0:	9827d07a 	srai	r19,r19,1
		theColumn = FONT2_XPIXELS;

		for(row = 0; row < theRow ; row ++)	{
			pixels = Font10x14[theCharacter][row] ;		     								// get the pixels for row 0 of the character to be displayed
			BitMask = 512 ;							   											// set of hex 200 i.e. bit 7-0 = 0010 0000 0000
			for(column = 0; column < theColumn;   )  	{
 80004f4:	8dffea16 	blt	r17,r23,80004a0 <__alt_data_end+0xfc0004a0>
	if(((short)(theCharacter) >= (short)(' ')) && ((short)(theCharacter) <= (short)('~'))) {			// if printable character
		theCharacter -= 0x20 ;																			// subtract hex 20 to get index of first printable character (the space character)
		theRow = FONT2_YPIXELS;
		theColumn = FONT2_XPIXELS;

		for(row = 0; row < theRow ; row ++)	{
 80004f8:	84000044 	addi	r16,r16,1
 80004fc:	85bfdc16 	blt	r16,r22,8000470 <__alt_data_end+0xfc000470>
					column ++ ;
				BitMask = BitMask >> 1 ;
			}
		}
	}
}
 8000500:	e6fff804 	addi	sp,fp,-32
 8000504:	dfc00917 	ldw	ra,36(sp)
 8000508:	df000817 	ldw	fp,32(sp)
 800050c:	ddc00717 	ldw	r23,28(sp)
 8000510:	dd800617 	ldw	r22,24(sp)
 8000514:	dd400517 	ldw	r21,20(sp)
 8000518:	dd000417 	ldw	r20,16(sp)
 800051c:	dcc00317 	ldw	r19,12(sp)
 8000520:	dc800217 	ldw	r18,8(sp)
 8000524:	dc400117 	ldw	r17,4(sp)
 8000528:	dc000017 	ldw	r16,0(sp)
 800052c:	dec00a04 	addi	sp,sp,40
 8000530:	f800283a 	ret

08000534 <initRS232Touch>:

/* a data type to hold a point/coord */
typedef struct { int x, y; } Point ;

//initialize
void initRS232Touch(void){
 8000534:	deffff04 	addi	sp,sp,-4
 8000538:	df000015 	stw	fp,0(sp)
 800053c:	d839883a 	mov	fp,sp
	//8 data bits, 1 stop bit
	RS232_Control = 0x15;
 8000540:	00a10034 	movhi	r2,33792
 8000544:	10808c04 	addi	r2,r2,560
 8000548:	00c00544 	movi	r3,21
 800054c:	10c00005 	stb	r3,0(r2)

	//9600 baud
	RS232_Baud = 0x05;
 8000550:	00a10034 	movhi	r2,33792
 8000554:	10808d04 	addi	r2,r2,564
 8000558:	00c00144 	movi	r3,5
 800055c:	10c00005 	stb	r3,0(r2)
}
 8000560:	e037883a 	mov	sp,fp
 8000564:	df000017 	ldw	fp,0(sp)
 8000568:	dec00104 	addi	sp,sp,4
 800056c:	f800283a 	ret

08000570 <getCharRS232Touch>:

//write to tx
char getCharRS232Touch( void ){
 8000570:	deffff04 	addi	sp,sp,-4
 8000574:	df000015 	stw	fp,0(sp)
 8000578:	d839883a 	mov	fp,sp
	while(!(RS232_Status&0x01)){};
 800057c:	0001883a 	nop
 8000580:	00a10034 	movhi	r2,33792
 8000584:	10808c04 	addi	r2,r2,560
 8000588:	10800003 	ldbu	r2,0(r2)
 800058c:	10803fcc 	andi	r2,r2,255
 8000590:	1080004c 	andi	r2,r2,1
 8000594:	103ffa26 	beq	r2,zero,8000580 <__alt_data_end+0xfc000580>
	return RS232_RxData;
 8000598:	00a10034 	movhi	r2,33792
 800059c:	10808c84 	addi	r2,r2,562
 80005a0:	10800003 	ldbu	r2,0(r2)
}
 80005a4:	e037883a 	mov	sp,fp
 80005a8:	df000017 	ldw	fp,0(sp)
 80005ac:	dec00104 	addi	sp,sp,4
 80005b0:	f800283a 	ret

080005b4 <putCharRS232Touch>:

//read from rx
void putCharRS232Touch(int c){
 80005b4:	defffe04 	addi	sp,sp,-8
 80005b8:	df000115 	stw	fp,4(sp)
 80005bc:	df000104 	addi	fp,sp,4
 80005c0:	e13fff15 	stw	r4,-4(fp)
	while(!(0x02&RS232_Status)){};
 80005c4:	0001883a 	nop
 80005c8:	00a10034 	movhi	r2,33792
 80005cc:	10808c04 	addi	r2,r2,560
 80005d0:	10800003 	ldbu	r2,0(r2)
 80005d4:	1080008c 	andi	r2,r2,2
 80005d8:	10803fcc 	andi	r2,r2,255
 80005dc:	103ffa26 	beq	r2,zero,80005c8 <__alt_data_end+0xfc0005c8>
	RS232_TxData = c;
 80005e0:	00a10034 	movhi	r2,33792
 80005e4:	10808c84 	addi	r2,r2,562
 80005e8:	e0ffff17 	ldw	r3,-4(fp)
 80005ec:	10c00005 	stb	r3,0(r2)
}
 80005f0:	e037883a 	mov	sp,fp
 80005f4:	df000017 	ldw	fp,0(sp)
 80005f8:	dec00104 	addi	sp,sp,4
 80005fc:	f800283a 	ret

08000600 <initTouchScreen>:

//initalize touchscreen
void initTouchScreen(void){
 8000600:	defffc04 	addi	sp,sp,-16
 8000604:	dfc00315 	stw	ra,12(sp)
 8000608:	df000215 	stw	fp,8(sp)
 800060c:	df000204 	addi	fp,sp,8
	putCharRS232Touch(0x55);
 8000610:	01001544 	movi	r4,85
 8000614:	80005b40 	call	80005b4 <putCharRS232Touch>
    putCharRS232Touch(0x01);
 8000618:	01000044 	movi	r4,1
 800061c:	80005b40 	call	80005b4 <putCharRS232Touch>
	putCharRS232Touch(0x12);
 8000620:	01000484 	movi	r4,18
 8000624:	80005b40 	call	80005b4 <putCharRS232Touch>
	int i;
	for (i = 0; i < 4; i++){
 8000628:	e03ffe15 	stw	zero,-8(fp)
 800062c:	00000506 	br	8000644 <initTouchScreen+0x44>
		char c = getCharRS232Touch();
 8000630:	80005700 	call	8000570 <getCharRS232Touch>
 8000634:	e0bfff05 	stb	r2,-4(fp)
void initTouchScreen(void){
	putCharRS232Touch(0x55);
    putCharRS232Touch(0x01);
	putCharRS232Touch(0x12);
	int i;
	for (i = 0; i < 4; i++){
 8000638:	e0bffe17 	ldw	r2,-8(fp)
 800063c:	10800044 	addi	r2,r2,1
 8000640:	e0bffe15 	stw	r2,-8(fp)
 8000644:	e0bffe17 	ldw	r2,-8(fp)
 8000648:	10800110 	cmplti	r2,r2,4
 800064c:	103ff81e 	bne	r2,zero,8000630 <__alt_data_end+0xfc000630>
		char c = getCharRS232Touch();
	}
}
 8000650:	e037883a 	mov	sp,fp
 8000654:	dfc00117 	ldw	ra,4(sp)
 8000658:	df000017 	ldw	fp,0(sp)
 800065c:	dec00204 	addi	sp,sp,8
 8000660:	f800283a 	ret

08000664 <screenTouched>:

//test if touched
int screenTouched( void ){
 8000664:	defffd04 	addi	sp,sp,-12
 8000668:	dfc00215 	stw	ra,8(sp)
 800066c:	df000115 	stw	fp,4(sp)
 8000670:	df000104 	addi	fp,sp,4
	char c = getCharRS232Touch();
 8000674:	80005700 	call	8000570 <getCharRS232Touch>
 8000678:	e0bfff05 	stb	r2,-4(fp)
	return (c&0x01)&(c>>7);
 800067c:	e0bfff03 	ldbu	r2,-4(fp)
 8000680:	10803fcc 	andi	r2,r2,255
 8000684:	10c0004c 	andi	r3,r2,1
 8000688:	e0bfff07 	ldb	r2,-4(fp)
 800068c:	1005d1fa 	srai	r2,r2,7
 8000690:	10803fcc 	andi	r2,r2,255
 8000694:	1080201c 	xori	r2,r2,128
 8000698:	10bfe004 	addi	r2,r2,-128
 800069c:	1884703a 	and	r2,r3,r2
}
 80006a0:	e037883a 	mov	sp,fp
 80006a4:	dfc00117 	ldw	ra,4(sp)
 80006a8:	df000017 	ldw	fp,0(sp)
 80006ac:	dec00204 	addi	sp,sp,8
 80006b0:	f800283a 	ret

080006b4 <waitForTouch>:

//wait for touch
void waitForTouch(){
 80006b4:	defffe04 	addi	sp,sp,-8
 80006b8:	dfc00115 	stw	ra,4(sp)
 80006bc:	df000015 	stw	fp,0(sp)
 80006c0:	d839883a 	mov	fp,sp
	while(!screenTouched());
 80006c4:	0001883a 	nop
 80006c8:	80006640 	call	8000664 <screenTouched>
 80006cc:	103ffe26 	beq	r2,zero,80006c8 <__alt_data_end+0xfc0006c8>
}
 80006d0:	e037883a 	mov	sp,fp
 80006d4:	dfc00117 	ldw	ra,4(sp)
 80006d8:	df000017 	ldw	fp,0(sp)
 80006dc:	dec00204 	addi	sp,sp,8
 80006e0:	f800283a 	ret

080006e4 <screenReleased>:

//test if released
int screenReleased( void ){
 80006e4:	defffd04 	addi	sp,sp,-12
 80006e8:	dfc00215 	stw	ra,8(sp)
 80006ec:	df000115 	stw	fp,4(sp)
 80006f0:	df000104 	addi	fp,sp,4
	char c = getCharRS232Touch();
 80006f4:	80005700 	call	8000570 <getCharRS232Touch>
 80006f8:	e0bfff05 	stb	r2,-4(fp)
	return (!(c&0x01))&(c>>7);
 80006fc:	e0bfff03 	ldbu	r2,-4(fp)
 8000700:	10803fcc 	andi	r2,r2,255
 8000704:	1080004c 	andi	r2,r2,1
 8000708:	1005003a 	cmpeq	r2,r2,zero
 800070c:	10c03fcc 	andi	r3,r2,255
 8000710:	e0bfff07 	ldb	r2,-4(fp)
 8000714:	1005d1fa 	srai	r2,r2,7
 8000718:	10803fcc 	andi	r2,r2,255
 800071c:	1080201c 	xori	r2,r2,128
 8000720:	10bfe004 	addi	r2,r2,-128
 8000724:	1884703a 	and	r2,r3,r2
}
 8000728:	e037883a 	mov	sp,fp
 800072c:	dfc00117 	ldw	ra,4(sp)
 8000730:	df000017 	ldw	fp,0(sp)
 8000734:	dec00204 	addi	sp,sp,8
 8000738:	f800283a 	ret

0800073c <waitForRelease>:


//wait for release
void waitForRelease(){
 800073c:	defffe04 	addi	sp,sp,-8
 8000740:	dfc00115 	stw	ra,4(sp)
 8000744:	df000015 	stw	fp,0(sp)
 8000748:	d839883a 	mov	fp,sp
     while(!screenReleased());
 800074c:	0001883a 	nop
 8000750:	80006e40 	call	80006e4 <screenReleased>
 8000754:	103ffe26 	beq	r2,zero,8000750 <__alt_data_end+0xfc000750>
}
 8000758:	e037883a 	mov	sp,fp
 800075c:	dfc00117 	ldw	ra,4(sp)
 8000760:	df000017 	ldw	fp,0(sp)
 8000764:	dec00204 	addi	sp,sp,8
 8000768:	f800283a 	ret

0800076c <check_bounds>:

//forces point into set range
int check_bounds(int a, int b){
 800076c:	defffd04 	addi	sp,sp,-12
 8000770:	df000215 	stw	fp,8(sp)
 8000774:	df000204 	addi	fp,sp,8
 8000778:	e13ffe15 	stw	r4,-8(fp)
 800077c:	e17fff15 	stw	r5,-4(fp)
	if (a < 0)
 8000780:	e0bffe17 	ldw	r2,-8(fp)
 8000784:	1000020e 	bge	r2,zero,8000790 <check_bounds+0x24>
		return 0;
 8000788:	0005883a 	mov	r2,zero
 800078c:	00000606 	br	80007a8 <check_bounds+0x3c>
	else if (a > b)
 8000790:	e0bffe17 	ldw	r2,-8(fp)
 8000794:	e0ffff17 	ldw	r3,-4(fp)
 8000798:	1880020e 	bge	r3,r2,80007a4 <check_bounds+0x38>
		return b;
 800079c:	e0bfff17 	ldw	r2,-4(fp)
 80007a0:	00000106 	br	80007a8 <check_bounds+0x3c>
	else
		return a;
 80007a4:	e0bffe17 	ldw	r2,-8(fp)
}
 80007a8:	e037883a 	mov	sp,fp
 80007ac:	df000017 	ldw	fp,0(sp)
 80007b0:	dec00104 	addi	sp,sp,4
 80007b4:	f800283a 	ret

080007b8 <getPoint>:

//get the touched/release point and map it
Point getPoint(){
 80007b8:	defff804 	addi	sp,sp,-32
 80007bc:	dfc00715 	stw	ra,28(sp)
 80007c0:	df000615 	stw	fp,24(sp)
 80007c4:	df000604 	addi	fp,sp,24

	Point p1;

	//get x and y coordinate from next 4 bytes
	int x_coord = 0x7F&getCharRS232Touch();
 80007c8:	80005700 	call	8000570 <getCharRS232Touch>
 80007cc:	10803fcc 	andi	r2,r2,255
 80007d0:	10801fcc 	andi	r2,r2,127
 80007d4:	e0bffa15 	stw	r2,-24(fp)
	x_coord = x_coord + ((0x1F&getCharRS232Touch())<<7);
 80007d8:	80005700 	call	8000570 <getCharRS232Touch>
 80007dc:	10803fcc 	andi	r2,r2,255
 80007e0:	108007cc 	andi	r2,r2,31
 80007e4:	100491fa 	slli	r2,r2,7
 80007e8:	e0fffa17 	ldw	r3,-24(fp)
 80007ec:	1885883a 	add	r2,r3,r2
 80007f0:	e0bffa15 	stw	r2,-24(fp)

	int y_coord = 0x7F&getCharRS232Touch();
 80007f4:	80005700 	call	8000570 <getCharRS232Touch>
 80007f8:	10803fcc 	andi	r2,r2,255
 80007fc:	10801fcc 	andi	r2,r2,127
 8000800:	e0bffb15 	stw	r2,-20(fp)
	y_coord = y_coord + ((0x1F&getCharRS232Touch())<<7);
 8000804:	80005700 	call	8000570 <getCharRS232Touch>
 8000808:	10803fcc 	andi	r2,r2,255
 800080c:	108007cc 	andi	r2,r2,31
 8000810:	100491fa 	slli	r2,r2,7
 8000814:	e0fffb17 	ldw	r3,-20(fp)
 8000818:	1885883a 	add	r2,r3,r2
 800081c:	e0bffb15 	stw	r2,-20(fp)

	printf("x_coord: %i\n", x_coord);
 8000820:	010200b4 	movhi	r4,2050
 8000824:	2104e804 	addi	r4,r4,5024
 8000828:	e17ffa17 	ldw	r5,-24(fp)
 800082c:	80043c40 	call	80043c4 <printf>
	printf("y_coord: %i\n\n", y_coord);
 8000830:	010200b4 	movhi	r4,2050
 8000834:	2104ec04 	addi	r4,r4,5040
 8000838:	e17ffb17 	ldw	r5,-20(fp)
 800083c:	80043c40 	call	80043c4 <printf>

	//map touched coordinates to pixels on display
	//mapping x from 200-3800 to 0-800 range
	//mapping y from 450-3800 to 0-480 range

	int mapped_x_coord = check_bounds((x_coord-200)/4.5, 800);
 8000840:	e0bffa17 	ldw	r2,-24(fp)
 8000844:	10bfce04 	addi	r2,r2,-200
 8000848:	1009883a 	mov	r4,r2
 800084c:	80039600 	call	8003960 <__floatsidf>
 8000850:	100b883a 	mov	r5,r2
 8000854:	180d883a 	mov	r6,r3
 8000858:	2809883a 	mov	r4,r5
 800085c:	300b883a 	mov	r5,r6
 8000860:	000d883a 	mov	r6,zero
 8000864:	01d004b4 	movhi	r7,16402
 8000868:	80028e80 	call	80028e8 <__divdf3>
 800086c:	1009883a 	mov	r4,r2
 8000870:	180b883a 	mov	r5,r3
 8000874:	2005883a 	mov	r2,r4
 8000878:	2807883a 	mov	r3,r5
 800087c:	1009883a 	mov	r4,r2
 8000880:	180b883a 	mov	r5,r3
 8000884:	80038d80 	call	80038d8 <__fixdfsi>
 8000888:	1009883a 	mov	r4,r2
 800088c:	0140c804 	movi	r5,800
 8000890:	800076c0 	call	800076c <check_bounds>
 8000894:	e0bffc15 	stw	r2,-16(fp)
	int mapped_y_coord = check_bounds((y_coord-450)/7, 480);
 8000898:	e0bffb17 	ldw	r2,-20(fp)
 800089c:	10ff8f84 	addi	r3,r2,-450
 80008a0:	008001c4 	movi	r2,7
 80008a4:	1885283a 	div	r2,r3,r2
 80008a8:	1009883a 	mov	r4,r2
 80008ac:	01407804 	movi	r5,480
 80008b0:	800076c0 	call	800076c <check_bounds>
 80008b4:	e0bffd15 	stw	r2,-12(fp)

	printf("mapped_x_coord: %i\n", mapped_x_coord);
 80008b8:	010200b4 	movhi	r4,2050
 80008bc:	2104f004 	addi	r4,r4,5056
 80008c0:	e17ffc17 	ldw	r5,-16(fp)
 80008c4:	80043c40 	call	80043c4 <printf>
	printf("mapped_y_coord: %i\n\n", mapped_y_coord);
 80008c8:	010200b4 	movhi	r4,2050
 80008cc:	2104f504 	addi	r4,r4,5076
 80008d0:	e17ffd17 	ldw	r5,-12(fp)
 80008d4:	80043c40 	call	80043c4 <printf>

	p1.x = mapped_x_coord;
 80008d8:	e0bffc17 	ldw	r2,-16(fp)
 80008dc:	e0bffe15 	stw	r2,-8(fp)
	p1.y = mapped_y_coord;
 80008e0:	e0bffd17 	ldw	r2,-12(fp)
 80008e4:	e0bfff15 	stw	r2,-4(fp)

 return p1;
 80008e8:	e0bffe17 	ldw	r2,-8(fp)
 80008ec:	e0ffff17 	ldw	r3,-4(fp)
 80008f0:	1009883a 	mov	r4,r2
 80008f4:	180b883a 	mov	r5,r3
}
 80008f8:	2005883a 	mov	r2,r4
 80008fc:	2807883a 	mov	r3,r5
 8000900:	e037883a 	mov	sp,fp
 8000904:	dfc00117 	ldw	ra,4(sp)
 8000908:	df000017 	ldw	fp,0(sp)
 800090c:	dec00204 	addi	sp,sp,8
 8000910:	f800283a 	ret

08000914 <getTime>:

long getTime(){
 8000914:	defffd04 	addi	sp,sp,-12
 8000918:	dfc00215 	stw	ra,8(sp)
 800091c:	df000115 	stw	fp,4(sp)
 8000920:	df000104 	addi	fp,sp,4
	  time_t seconds;
	  seconds = time (NULL);
 8000924:	0009883a 	mov	r4,zero
 8000928:	8007e340 	call	8007e34 <time>
 800092c:	e0bfff15 	stw	r2,-4(fp)
	  return seconds;
 8000930:	e0bfff17 	ldw	r2,-4(fp)
}
 8000934:	e037883a 	mov	sp,fp
 8000938:	dfc00117 	ldw	ra,4(sp)
 800093c:	df000017 	ldw	fp,0(sp)
 8000940:	dec00204 	addi	sp,sp,8
 8000944:	f800283a 	ret

08000948 <getPressTime>:

Point getPressTime(int time){
 8000948:	defff904 	addi	sp,sp,-28
 800094c:	dfc00615 	stw	ra,24(sp)
 8000950:	df000515 	stw	fp,20(sp)
 8000954:	df000504 	addi	fp,sp,20
 8000958:	e13fff15 	stw	r4,-4(fp)
	long currentTime = getTime();
 800095c:	80009140 	call	8000914 <getTime>
 8000960:	e0bffb15 	stw	r2,-20(fp)
	while (getTime()-currentTime < time){
 8000964:	00001006 	br	80009a8 <getPressTime+0x60>
		char c = getCharRS232Touch();
 8000968:	80005700 	call	8000570 <getCharRS232Touch>
 800096c:	e0bffc05 	stb	r2,-16(fp)
		if((c&0x01)&(c>>7)){
 8000970:	e0bffc03 	ldbu	r2,-16(fp)
 8000974:	10803fcc 	andi	r2,r2,255
 8000978:	10c0004c 	andi	r3,r2,1
 800097c:	e0bffc07 	ldb	r2,-16(fp)
 8000980:	1005d1fa 	srai	r2,r2,7
 8000984:	10803fcc 	andi	r2,r2,255
 8000988:	1080201c 	xori	r2,r2,128
 800098c:	10bfe004 	addi	r2,r2,-128
 8000990:	1884703a 	and	r2,r3,r2
 8000994:	10000426 	beq	r2,zero,80009a8 <getPressTime+0x60>
			return getPoint();
 8000998:	80007b80 	call	80007b8 <getPoint>
 800099c:	1009883a 	mov	r4,r2
 80009a0:	180b883a 	mov	r5,r3
 80009a4:	00000c06 	br	80009d8 <getPressTime+0x90>
	  return seconds;
}

Point getPressTime(int time){
	long currentTime = getTime();
	while (getTime()-currentTime < time){
 80009a8:	80009140 	call	8000914 <getTime>
 80009ac:	1007883a 	mov	r3,r2
 80009b0:	e0bffb17 	ldw	r2,-20(fp)
 80009b4:	1887c83a 	sub	r3,r3,r2
 80009b8:	e0bfff17 	ldw	r2,-4(fp)
 80009bc:	18bfea16 	blt	r3,r2,8000968 <__alt_data_end+0xfc000968>
		if((c&0x01)&(c>>7)){
			return getPoint();
		}
	}
	Point p;
	p.x = -1;
 80009c0:	00bfffc4 	movi	r2,-1
 80009c4:	e0bffd15 	stw	r2,-12(fp)
	p.y = -1;
 80009c8:	00bfffc4 	movi	r2,-1
 80009cc:	e0bffe15 	stw	r2,-8(fp)
	return p;
 80009d0:	e13ffd17 	ldw	r4,-12(fp)
 80009d4:	e17ffe17 	ldw	r5,-8(fp)
 80009d8:	200d883a 	mov	r6,r4
 80009dc:	280f883a 	mov	r7,r5
}
 80009e0:	3005883a 	mov	r2,r6
 80009e4:	3807883a 	mov	r3,r7
 80009e8:	e037883a 	mov	sp,fp
 80009ec:	dfc00117 	ldw	ra,4(sp)
 80009f0:	df000017 	ldw	fp,0(sp)
 80009f4:	dec00204 	addi	sp,sp,8
 80009f8:	f800283a 	ret

080009fc <getPress>:

//waits for a touch screen press event and returns X,Y coord
Point getPress(void){
 80009fc:	defffe04 	addi	sp,sp,-8
 8000a00:	dfc00115 	stw	ra,4(sp)
 8000a04:	df000015 	stw	fp,0(sp)
 8000a08:	d839883a 	mov	fp,sp
	waitForTouch();
 8000a0c:	80006b40 	call	80006b4 <waitForTouch>
	return getPoint();
 8000a10:	80007b80 	call	80007b8 <getPoint>
 8000a14:	100b883a 	mov	r5,r2
 8000a18:	180d883a 	mov	r6,r3
 8000a1c:	2807883a 	mov	r3,r5
 8000a20:	3009883a 	mov	r4,r6
}
 8000a24:	1805883a 	mov	r2,r3
 8000a28:	2007883a 	mov	r3,r4
 8000a2c:	e037883a 	mov	sp,fp
 8000a30:	dfc00117 	ldw	ra,4(sp)
 8000a34:	df000017 	ldw	fp,0(sp)
 8000a38:	dec00204 	addi	sp,sp,8
 8000a3c:	f800283a 	ret

08000a40 <getRelease>:

//waits for a touch screen release event and returns X,Y coord
Point getRelease(void){
 8000a40:	defffe04 	addi	sp,sp,-8
 8000a44:	dfc00115 	stw	ra,4(sp)
 8000a48:	df000015 	stw	fp,0(sp)
 8000a4c:	d839883a 	mov	fp,sp
	waitForRelease();
 8000a50:	800073c0 	call	800073c <waitForRelease>
	return getPoint();
 8000a54:	80007b80 	call	80007b8 <getPoint>
 8000a58:	100b883a 	mov	r5,r2
 8000a5c:	180d883a 	mov	r6,r3
 8000a60:	2807883a 	mov	r3,r5
 8000a64:	3009883a 	mov	r4,r6
}
 8000a68:	1805883a 	mov	r2,r3
 8000a6c:	2007883a 	mov	r3,r4
 8000a70:	e037883a 	mov	sp,fp
 8000a74:	dfc00117 	ldw	ra,4(sp)
 8000a78:	df000017 	ldw	fp,0(sp)
 8000a7c:	dec00204 	addi	sp,sp,8
 8000a80:	f800283a 	ret

08000a84 <Init_RS232WIFI>:
#define RS232_RxData_wifi (*(volatile unsigned char *)(0x84000222))
#define RS232_Baud_wifi (*(volatile unsigned char *)(0x84000224))


void Init_RS232WIFI(void)
{
 8000a84:	deffff04 	addi	sp,sp,-4
 8000a88:	df000015 	stw	fp,0(sp)
 8000a8c:	d839883a 	mov	fp,sp
	RS232_Control_wifi = 0x15;
 8000a90:	00a10034 	movhi	r2,33792
 8000a94:	10808804 	addi	r2,r2,544
 8000a98:	00c00544 	movi	r3,21
 8000a9c:	10c00005 	stb	r3,0(r2)

	 // program baud rate generator to use 115k baud
	RS232_Baud_wifi = 0x01;
 8000aa0:	00a10034 	movhi	r2,33792
 8000aa4:	10808904 	addi	r2,r2,548
 8000aa8:	00c00044 	movi	r3,1
 8000aac:	10c00005 	stb	r3,0(r2)

}
 8000ab0:	e037883a 	mov	sp,fp
 8000ab4:	df000017 	ldw	fp,0(sp)
 8000ab8:	dec00104 	addi	sp,sp,4
 8000abc:	f800283a 	ret

08000ac0 <putcharRS232WIFI>:
int putcharRS232WIFI(int c)
{
 8000ac0:	defffe04 	addi	sp,sp,-8
 8000ac4:	df000115 	stw	fp,4(sp)
 8000ac8:	df000104 	addi	fp,sp,4
 8000acc:	e13fff15 	stw	r4,-4(fp)
 // poll Tx bit in 6850 status register. Wait for it to become '1'
	while(!(0x02&RS232_Status_wifi)){};
 8000ad0:	0001883a 	nop
 8000ad4:	00a10034 	movhi	r2,33792
 8000ad8:	10808804 	addi	r2,r2,544
 8000adc:	10800003 	ldbu	r2,0(r2)
 8000ae0:	1080008c 	andi	r2,r2,2
 8000ae4:	10803fcc 	andi	r2,r2,255
 8000ae8:	103ffa26 	beq	r2,zero,8000ad4 <__alt_data_end+0xfc000ad4>
	//if Tx bit = 1, break out the while loop
 // write 'c' to the 6850 TxData register to output the character
	//int = 8 bits
	RS232_TxData_wifi = c;
 8000aec:	00a10034 	movhi	r2,33792
 8000af0:	10808884 	addi	r2,r2,546
 8000af4:	e0ffff17 	ldw	r3,-4(fp)
 8000af8:	10c00005 	stb	r3,0(r2)
 return c ; // return c
 8000afc:	e0bfff17 	ldw	r2,-4(fp)
}
 8000b00:	e037883a 	mov	sp,fp
 8000b04:	df000017 	ldw	fp,0(sp)
 8000b08:	dec00104 	addi	sp,sp,4
 8000b0c:	f800283a 	ret

08000b10 <getcharRS232WIFI>:
int getcharRS232WIFI( void )
{
 8000b10:	deffff04 	addi	sp,sp,-4
 8000b14:	df000015 	stw	fp,0(sp)
 8000b18:	d839883a 	mov	fp,sp
 // poll Rx bit in 6850 status register. Wait for it to become '1'
	while(!(0x01&RS232_Status_wifi)){};
 8000b1c:	0001883a 	nop
 8000b20:	00a10034 	movhi	r2,33792
 8000b24:	10808804 	addi	r2,r2,544
 8000b28:	10800003 	ldbu	r2,0(r2)
 8000b2c:	1080004c 	andi	r2,r2,1
 8000b30:	10803fcc 	andi	r2,r2,255
 8000b34:	103ffa26 	beq	r2,zero,8000b20 <__alt_data_end+0xfc000b20>
	//when Rx bit becomes 1, break out the while loop
 // read received character from 6850 RxData register.
	return (int) RS232_RxData_wifi;
 8000b38:	00a10034 	movhi	r2,33792
 8000b3c:	10808884 	addi	r2,r2,546
 8000b40:	10800003 	ldbu	r2,0(r2)
 8000b44:	10803fcc 	andi	r2,r2,255
}
 8000b48:	e037883a 	mov	sp,fp
 8000b4c:	df000017 	ldw	fp,0(sp)
 8000b50:	dec00104 	addi	sp,sp,4
 8000b54:	f800283a 	ret

08000b58 <RS232TestForReceivedDataWIFI>:
// the following function polls the 6850 to determine if any character
// has been received. It doesn't wait for one, or read it, it simply tests
// to see if one is available to read
int RS232TestForReceivedDataWIFI(void)
{
 8000b58:	deffff04 	addi	sp,sp,-4
 8000b5c:	df000015 	stw	fp,0(sp)
 8000b60:	d839883a 	mov	fp,sp
 // Test Rx bit in 6850 serial comms chip status register
 // if RX bit is set, return TRUE, otherwise return FALSE
	return 0x01&RS232_Status_wifi;
 8000b64:	00a10034 	movhi	r2,33792
 8000b68:	10808804 	addi	r2,r2,544
 8000b6c:	10800003 	ldbu	r2,0(r2)
 8000b70:	10803fcc 	andi	r2,r2,255
 8000b74:	1080004c 	andi	r2,r2,1
}
 8000b78:	e037883a 	mov	sp,fp
 8000b7c:	df000017 	ldw	fp,0(sp)
 8000b80:	dec00104 	addi	sp,sp,4
 8000b84:	f800283a 	ret

08000b88 <putString>:

char initialize[] = "dofile(\"send_text_message.lua\")";

char safeMessage[] = "Your dependent is safe";

void putString(char string[]){
 8000b88:	defffb04 	addi	sp,sp,-20
 8000b8c:	dfc00415 	stw	ra,16(sp)
 8000b90:	df000315 	stw	fp,12(sp)
 8000b94:	dc000215 	stw	r16,8(sp)
 8000b98:	df000304 	addi	fp,sp,12
 8000b9c:	e13ffe15 	stw	r4,-8(fp)
	int i;

	for (i = 0; i < strlen(string); i++){
 8000ba0:	e03ffd15 	stw	zero,-12(fp)
 8000ba4:	00000c06 	br	8000bd8 <putString+0x50>
	putcharRS232WIFI(string[i]);
 8000ba8:	e0bffd17 	ldw	r2,-12(fp)
 8000bac:	e0fffe17 	ldw	r3,-8(fp)
 8000bb0:	1885883a 	add	r2,r3,r2
 8000bb4:	10800003 	ldbu	r2,0(r2)
 8000bb8:	10803fcc 	andi	r2,r2,255
 8000bbc:	1080201c 	xori	r2,r2,128
 8000bc0:	10bfe004 	addi	r2,r2,-128
 8000bc4:	1009883a 	mov	r4,r2
 8000bc8:	8000ac00 	call	8000ac0 <putcharRS232WIFI>
char safeMessage[] = "Your dependent is safe";

void putString(char string[]){
	int i;

	for (i = 0; i < strlen(string); i++){
 8000bcc:	e0bffd17 	ldw	r2,-12(fp)
 8000bd0:	10800044 	addi	r2,r2,1
 8000bd4:	e0bffd15 	stw	r2,-12(fp)
 8000bd8:	e43ffd17 	ldw	r16,-12(fp)
 8000bdc:	e13ffe17 	ldw	r4,-8(fp)
 8000be0:	80046f40 	call	80046f4 <strlen>
 8000be4:	80bff036 	bltu	r16,r2,8000ba8 <__alt_data_end+0xfc000ba8>
	putcharRS232WIFI(string[i]);
	}
	putcharRS232WIFI('\r');
 8000be8:	01000344 	movi	r4,13
 8000bec:	8000ac00 	call	8000ac0 <putcharRS232WIFI>
	putcharRS232WIFI('\n');
 8000bf0:	01000284 	movi	r4,10
 8000bf4:	8000ac00 	call	8000ac0 <putcharRS232WIFI>
}
 8000bf8:	e6ffff04 	addi	sp,fp,-4
 8000bfc:	dfc00217 	ldw	ra,8(sp)
 8000c00:	df000117 	ldw	fp,4(sp)
 8000c04:	dc000017 	ldw	r16,0(sp)
 8000c08:	dec00304 	addi	sp,sp,12
 8000c0c:	f800283a 	ret

08000c10 <message>:

void message(char string[]){
 8000c10:	deffbd04 	addi	sp,sp,-268
 8000c14:	dfc04215 	stw	ra,264(sp)
 8000c18:	df004115 	stw	fp,260(sp)
 8000c1c:	df004104 	addi	fp,sp,260
 8000c20:	e13fff15 	stw	r4,-4(fp)
	char str[256];

	sprintf(str,"send_sms(\"(778) 653-7744\",\"(604) 783-0303\",\"%s\")",string);
 8000c24:	e13fbf04 	addi	r4,fp,-260
 8000c28:	014200b4 	movhi	r5,2050
 8000c2c:	2944fb04 	addi	r5,r5,5100
 8000c30:	e1bfff17 	ldw	r6,-4(fp)
 8000c34:	80044cc0 	call	80044cc <sprintf>
	putString(str);
 8000c38:	e13fbf04 	addi	r4,fp,-260
 8000c3c:	8000b880 	call	8000b88 <putString>
}
 8000c40:	e037883a 	mov	sp,fp
 8000c44:	dfc00117 	ldw	ra,4(sp)
 8000c48:	df000017 	ldw	fp,0(sp)
 8000c4c:	dec00204 	addi	sp,sp,8
 8000c50:	f800283a 	ret

08000c54 <initRS232GPS>:


typedef struct { char* lat; char* lng; } Coord ;

//initialize
void initRS232GPS(void) {
 8000c54:	deffff04 	addi	sp,sp,-4
 8000c58:	df000015 	stw	fp,0(sp)
 8000c5c:	d839883a 	mov	fp,sp
	//8 data bits, 1 stop bit
	RS232_Control_gps = 0x15;
 8000c60:	00a10034 	movhi	r2,33792
 8000c64:	10808404 	addi	r2,r2,528
 8000c68:	00c00544 	movi	r3,21
 8000c6c:	10c00005 	stb	r3,0(r2)

	//9600 baud
	RS232_Baud_gps = 0x05;
 8000c70:	00a10034 	movhi	r2,33792
 8000c74:	10808504 	addi	r2,r2,532
 8000c78:	00c00144 	movi	r3,5
 8000c7c:	10c00005 	stb	r3,0(r2)
}
 8000c80:	e037883a 	mov	sp,fp
 8000c84:	df000017 	ldw	fp,0(sp)
 8000c88:	dec00104 	addi	sp,sp,4
 8000c8c:	f800283a 	ret

08000c90 <getCharRS232GPS>:

//write to tx
char getCharRS232GPS(void) {
 8000c90:	deffff04 	addi	sp,sp,-4
 8000c94:	df000015 	stw	fp,0(sp)
 8000c98:	d839883a 	mov	fp,sp
	while (!(RS232_Status_gps & 0x01)) {
 8000c9c:	0001883a 	nop
 8000ca0:	00a10034 	movhi	r2,33792
 8000ca4:	10808404 	addi	r2,r2,528
 8000ca8:	10800003 	ldbu	r2,0(r2)
 8000cac:	10803fcc 	andi	r2,r2,255
 8000cb0:	1080004c 	andi	r2,r2,1
 8000cb4:	103ffa26 	beq	r2,zero,8000ca0 <__alt_data_end+0xfc000ca0>
	};
	return RS232_RxData_gps;
 8000cb8:	00a10034 	movhi	r2,33792
 8000cbc:	10808484 	addi	r2,r2,530
 8000cc0:	10800003 	ldbu	r2,0(r2)
}
 8000cc4:	e037883a 	mov	sp,fp
 8000cc8:	df000017 	ldw	fp,0(sp)
 8000ccc:	dec00104 	addi	sp,sp,4
 8000cd0:	f800283a 	ret

08000cd4 <putCharRS232GPS>:

//read from rx
void putCharRS232GPS(int c) {
 8000cd4:	defffe04 	addi	sp,sp,-8
 8000cd8:	df000115 	stw	fp,4(sp)
 8000cdc:	df000104 	addi	fp,sp,4
 8000ce0:	e13fff15 	stw	r4,-4(fp)
	while (!(0x02 & RS232_Status_gps)) {
 8000ce4:	0001883a 	nop
 8000ce8:	00a10034 	movhi	r2,33792
 8000cec:	10808404 	addi	r2,r2,528
 8000cf0:	10800003 	ldbu	r2,0(r2)
 8000cf4:	1080008c 	andi	r2,r2,2
 8000cf8:	10803fcc 	andi	r2,r2,255
 8000cfc:	103ffa26 	beq	r2,zero,8000ce8 <__alt_data_end+0xfc000ce8>
	};
	RS232_TxData_gps = c;
 8000d00:	00a10034 	movhi	r2,33792
 8000d04:	10808484 	addi	r2,r2,530
 8000d08:	e0ffff17 	ldw	r3,-4(fp)
 8000d0c:	10c00005 	stb	r3,0(r2)
}
 8000d10:	e037883a 	mov	sp,fp
 8000d14:	df000017 	ldw	fp,0(sp)
 8000d18:	dec00104 	addi	sp,sp,4
 8000d1c:	f800283a 	ret

08000d20 <getGPSdata>:

Coord getGPSdata() {
 8000d20:	deffe604 	addi	sp,sp,-104
 8000d24:	dfc01915 	stw	ra,100(sp)
 8000d28:	df001815 	stw	fp,96(sp)
 8000d2c:	ddc01715 	stw	r23,92(sp)
 8000d30:	dd801615 	stw	r22,88(sp)
 8000d34:	dd401515 	stw	r21,84(sp)
 8000d38:	dd001415 	stw	r20,80(sp)
 8000d3c:	dcc01315 	stw	r19,76(sp)
 8000d40:	dc801215 	stw	r18,72(sp)
 8000d44:	dc401115 	stw	r17,68(sp)
 8000d48:	dc001015 	stw	r16,64(sp)
 8000d4c:	df001804 	addi	fp,sp,96
	int size = 500;
 8000d50:	00807d04 	movi	r2,500
 8000d54:	e0bfe915 	stw	r2,-92(fp)
 8000d58:	d805883a 	mov	r2,sp
 8000d5c:	e0bff515 	stw	r2,-44(fp)
	Coord c;
	while (1) {
		char data[size];
 8000d60:	e0bfe917 	ldw	r2,-92(fp)
 8000d64:	10ffffc4 	addi	r3,r2,-1
 8000d68:	e0ffea15 	stw	r3,-88(fp)
 8000d6c:	1007883a 	mov	r3,r2
 8000d70:	1829883a 	mov	r20,r3
 8000d74:	002b883a 	mov	r21,zero
 8000d78:	a006d77a 	srli	r3,r20,29
 8000d7c:	a82290fa 	slli	r17,r21,3
 8000d80:	1c62b03a 	or	r17,r3,r17
 8000d84:	a02090fa 	slli	r16,r20,3
 8000d88:	1007883a 	mov	r3,r2
 8000d8c:	182d883a 	mov	r22,r3
 8000d90:	002f883a 	mov	r23,zero
 8000d94:	b006d77a 	srli	r3,r22,29
 8000d98:	b82690fa 	slli	r19,r23,3
 8000d9c:	1ce6b03a 	or	r19,r3,r19
 8000da0:	b02490fa 	slli	r18,r22,3
 8000da4:	108000c4 	addi	r2,r2,3
 8000da8:	1004d0ba 	srli	r2,r2,2
 8000dac:	1085883a 	add	r2,r2,r2
 8000db0:	1085883a 	add	r2,r2,r2
 8000db4:	d8b7c83a 	sub	sp,sp,r2
 8000db8:	d805883a 	mov	r2,sp
 8000dbc:	1005883a 	mov	r2,r2
 8000dc0:	e0bfeb15 	stw	r2,-84(fp)
		char character;
		int index = 0;
 8000dc4:	e03fe815 	stw	zero,-96(fp)
		const char s[2] = ",";
 8000dc8:	00800b04 	movi	r2,44
 8000dcc:	e0bff40d 	sth	r2,-48(fp)
		//get data string
		do {
			character = getCharRS232GPS();
 8000dd0:	8000c900 	call	8000c90 <getCharRS232GPS>
 8000dd4:	e0bfec05 	stb	r2,-80(fp)
			printf("%c", character);
 8000dd8:	e0bfec07 	ldb	r2,-80(fp)
 8000ddc:	1009883a 	mov	r4,r2
 8000de0:	80044080 	call	8004408 <putchar>
			data[index] = character;
 8000de4:	e0ffeb17 	ldw	r3,-84(fp)
 8000de8:	e0bfe817 	ldw	r2,-96(fp)
 8000dec:	1885883a 	add	r2,r3,r2
 8000df0:	e0ffec03 	ldbu	r3,-80(fp)
 8000df4:	10c00005 	stb	r3,0(r2)
			index++;
 8000df8:	e0bfe817 	ldw	r2,-96(fp)
 8000dfc:	10800044 	addi	r2,r2,1
 8000e00:	e0bfe815 	stw	r2,-96(fp)
		} while (character != '\n');
 8000e04:	e0bfec07 	ldb	r2,-80(fp)
 8000e08:	10800298 	cmpnei	r2,r2,10
 8000e0c:	103ff01e 	bne	r2,zero,8000dd0 <__alt_data_end+0xfc000dd0>

		char *token = strtok(data, s);
 8000e10:	e0ffeb17 	ldw	r3,-84(fp)
 8000e14:	e0bff404 	addi	r2,fp,-48
 8000e18:	1809883a 	mov	r4,r3
 8000e1c:	100b883a 	mov	r5,r2
 8000e20:	8005dec0 	call	8005dec <strtok>
 8000e24:	e0bfed15 	stw	r2,-76(fp)

		if (!strcmp(token, "$GPGGA")) {
 8000e28:	e13fed17 	ldw	r4,-76(fp)
 8000e2c:	014200b4 	movhi	r5,2050
 8000e30:	29450804 	addi	r5,r5,5152
 8000e34:	80045c00 	call	80045c0 <strcmp>
 8000e38:	1000371e 	bne	r2,zero,8000f18 <getGPSdata+0x1f8>
			printf("message_id: %s \n", token);
 8000e3c:	010200b4 	movhi	r4,2050
 8000e40:	21050a04 	addi	r4,r4,5160
 8000e44:	e17fed17 	ldw	r5,-76(fp)
 8000e48:	80043c40 	call	80043c4 <printf>

			token = strtok(NULL, s);
 8000e4c:	e0bff404 	addi	r2,fp,-48
 8000e50:	0009883a 	mov	r4,zero
 8000e54:	100b883a 	mov	r5,r2
 8000e58:	8005dec0 	call	8005dec <strtok>
 8000e5c:	e0bfed15 	stw	r2,-76(fp)
			double UTC_time = atof(token);
 8000e60:	e13fed17 	ldw	r4,-76(fp)
 8000e64:	8003bc00 	call	8003bc0 <atof>
 8000e68:	e0bfee15 	stw	r2,-72(fp)
 8000e6c:	e0ffef15 	stw	r3,-68(fp)
			printf("UTC_time: %f \n", UTC_time);
 8000e70:	010200b4 	movhi	r4,2050
 8000e74:	21050f04 	addi	r4,r4,5180
 8000e78:	e17fee17 	ldw	r5,-72(fp)
 8000e7c:	e1bfef17 	ldw	r6,-68(fp)
 8000e80:	80043c40 	call	80043c4 <printf>

			token = strtok(NULL, s);
 8000e84:	e0bff404 	addi	r2,fp,-48
 8000e88:	0009883a 	mov	r4,zero
 8000e8c:	100b883a 	mov	r5,r2
 8000e90:	8005dec0 	call	8005dec <strtok>
 8000e94:	e0bfed15 	stw	r2,-76(fp)
			char* latitude = token;
 8000e98:	e0bfed17 	ldw	r2,-76(fp)
 8000e9c:	e0bff015 	stw	r2,-64(fp)
			printf("latitude: %s \n", latitude);
 8000ea0:	010200b4 	movhi	r4,2050
 8000ea4:	21051304 	addi	r4,r4,5196
 8000ea8:	e17ff017 	ldw	r5,-64(fp)
 8000eac:	80043c40 	call	80043c4 <printf>

			token = strtok(NULL, s);
 8000eb0:	e0bff404 	addi	r2,fp,-48
 8000eb4:	0009883a 	mov	r4,zero
 8000eb8:	100b883a 	mov	r5,r2
 8000ebc:	8005dec0 	call	8005dec <strtok>
 8000ec0:	e0bfed15 	stw	r2,-76(fp)
			token = strtok(NULL, s);
 8000ec4:	e0bff404 	addi	r2,fp,-48
 8000ec8:	0009883a 	mov	r4,zero
 8000ecc:	100b883a 	mov	r5,r2
 8000ed0:	8005dec0 	call	8005dec <strtok>
 8000ed4:	e0bfed15 	stw	r2,-76(fp)
			char* longitude = token;
 8000ed8:	e0bfed17 	ldw	r2,-76(fp)
 8000edc:	e0bff115 	stw	r2,-60(fp)
			printf("longitude: %s \n", longitude);
 8000ee0:	010200b4 	movhi	r4,2050
 8000ee4:	21051704 	addi	r4,r4,5212
 8000ee8:	e17ff117 	ldw	r5,-60(fp)
 8000eec:	80043c40 	call	80043c4 <printf>

			c.lat = latitude;
 8000ef0:	e0bff017 	ldw	r2,-64(fp)
 8000ef4:	e0bff215 	stw	r2,-56(fp)
			c.lng = longitude;
 8000ef8:	e0bff117 	ldw	r2,-60(fp)
 8000efc:	e0bff315 	stw	r2,-52(fp)
			return c;
 8000f00:	e0bff217 	ldw	r2,-56(fp)
 8000f04:	e0bff615 	stw	r2,-40(fp)
 8000f08:	e0bff317 	ldw	r2,-52(fp)
 8000f0c:	e0bff715 	stw	r2,-36(fp)
 8000f10:	0005883a 	mov	r2,zero
 8000f14:	00000106 	br	8000f1c <getGPSdata+0x1fc>
 8000f18:	00800044 	movi	r2,1
 8000f1c:	e6fff517 	ldw	sp,-44(fp)
 8000f20:	10800060 	cmpeqi	r2,r2,1
 8000f24:	10000126 	beq	r2,zero,8000f2c <getGPSdata+0x20c>
		}
	}
 8000f28:	003f8b06 	br	8000d58 <__alt_data_end+0xfc000d58>
 8000f2c:	e0fff617 	ldw	r3,-40(fp)
 8000f30:	e13ff717 	ldw	r4,-36(fp)
	return c;
}
 8000f34:	1805883a 	mov	r2,r3
 8000f38:	2007883a 	mov	r3,r4
 8000f3c:	e6fff804 	addi	sp,fp,-32
 8000f40:	dfc00917 	ldw	ra,36(sp)
 8000f44:	df000817 	ldw	fp,32(sp)
 8000f48:	ddc00717 	ldw	r23,28(sp)
 8000f4c:	dd800617 	ldw	r22,24(sp)
 8000f50:	dd400517 	ldw	r21,20(sp)
 8000f54:	dd000417 	ldw	r20,16(sp)
 8000f58:	dcc00317 	ldw	r19,12(sp)
 8000f5c:	dc800217 	ldw	r18,8(sp)
 8000f60:	dc400117 	ldw	r17,4(sp)
 8000f64:	dc000017 	ldw	r16,0(sp)
 8000f68:	dec00a04 	addi	sp,sp,40
 8000f6c:	f800283a 	ret

08000f70 <concat>:


char* concat(const char *s1, const char *s2, const char *s3, const char *s4){
 8000f70:	defff804 	addi	sp,sp,-32
 8000f74:	dfc00715 	stw	ra,28(sp)
 8000f78:	df000615 	stw	fp,24(sp)
 8000f7c:	dc000515 	stw	r16,20(sp)
 8000f80:	df000604 	addi	fp,sp,24
 8000f84:	e13ffb15 	stw	r4,-20(fp)
 8000f88:	e17ffc15 	stw	r5,-16(fp)
 8000f8c:	e1bffd15 	stw	r6,-12(fp)
 8000f90:	e1fffe15 	stw	r7,-8(fp)
    char *result = malloc(strlen(s1)+strlen(s2)+strlen(s3)+strlen(s4)+1);
 8000f94:	e13ffb17 	ldw	r4,-20(fp)
 8000f98:	80046f40 	call	80046f4 <strlen>
 8000f9c:	1021883a 	mov	r16,r2
 8000fa0:	e13ffc17 	ldw	r4,-16(fp)
 8000fa4:	80046f40 	call	80046f4 <strlen>
 8000fa8:	80a1883a 	add	r16,r16,r2
 8000fac:	e13ffd17 	ldw	r4,-12(fp)
 8000fb0:	80046f40 	call	80046f4 <strlen>
 8000fb4:	80a1883a 	add	r16,r16,r2
 8000fb8:	e13ffe17 	ldw	r4,-8(fp)
 8000fbc:	80046f40 	call	80046f4 <strlen>
 8000fc0:	8085883a 	add	r2,r16,r2
 8000fc4:	10800044 	addi	r2,r2,1
 8000fc8:	1009883a 	mov	r4,r2
 8000fcc:	8003bc80 	call	8003bc8 <malloc>
 8000fd0:	e0bffa15 	stw	r2,-24(fp)
    strcpy(result, s1);
 8000fd4:	e13ffa17 	ldw	r4,-24(fp)
 8000fd8:	e17ffb17 	ldw	r5,-20(fp)
 8000fdc:	80046640 	call	8004664 <strcpy>
    strcat(result, s2);
 8000fe0:	e13ffa17 	ldw	r4,-24(fp)
 8000fe4:	e17ffc17 	ldw	r5,-16(fp)
 8000fe8:	80045380 	call	8004538 <strcat>
    strcat(result, s3);
 8000fec:	e13ffa17 	ldw	r4,-24(fp)
 8000ff0:	e17ffd17 	ldw	r5,-12(fp)
 8000ff4:	80045380 	call	8004538 <strcat>
    strcat(result, s4);
 8000ff8:	e13ffa17 	ldw	r4,-24(fp)
 8000ffc:	e17ffe17 	ldw	r5,-8(fp)
 8001000:	80045380 	call	8004538 <strcat>
    return result;
 8001004:	e0bffa17 	ldw	r2,-24(fp)
}
 8001008:	e6ffff04 	addi	sp,fp,-4
 800100c:	dfc00217 	ldw	ra,8(sp)
 8001010:	df000117 	ldw	fp,4(sp)
 8001014:	dc000017 	ldw	r16,0(sp)
 8001018:	dec00304 	addi	sp,sp,12
 800101c:	f800283a 	ret

08001020 <WriteAPixel>:
/**********************************************************************
* This function writes a single pixel to the x,y coords specified in the specified colour
* Note colour is a palette number (0-255) not a 24 bit RGB value
**********************************************************************/
void WriteAPixel (int x, int y, int Colour)
{
 8001020:	defffc04 	addi	sp,sp,-16
 8001024:	df000315 	stw	fp,12(sp)
 8001028:	df000304 	addi	fp,sp,12
 800102c:	e13ffd15 	stw	r4,-12(fp)
 8001030:	e17ffe15 	stw	r5,-8(fp)
 8001034:	e1bfff15 	stw	r6,-4(fp)
	WAIT_FOR_GRAPHICS;			// is graphics ready for new command
 8001038:	0001883a 	nop
 800103c:	00a10034 	movhi	r2,33792
 8001040:	1080000b 	ldhu	r2,0(r2)
 8001044:	10bfffcc 	andi	r2,r2,65535
 8001048:	1080004c 	andi	r2,r2,1
 800104c:	103ffb26 	beq	r2,zero,800103c <__alt_data_end+0xfc00103c>

	GraphicsX1Reg = x;			// write coords to x1, y1
 8001050:	00a10034 	movhi	r2,33792
 8001054:	10800084 	addi	r2,r2,2
 8001058:	e0fffd17 	ldw	r3,-12(fp)
 800105c:	10c0000d 	sth	r3,0(r2)
	GraphicsY1Reg = y;
 8001060:	00a10034 	movhi	r2,33792
 8001064:	10800104 	addi	r2,r2,4
 8001068:	e0fffe17 	ldw	r3,-8(fp)
 800106c:	10c0000d 	sth	r3,0(r2)
	GraphicsColourReg = Colour;		// set pixel colour with a palette number
 8001070:	00a10034 	movhi	r2,33792
 8001074:	10800384 	addi	r2,r2,14
 8001078:	e0ffff17 	ldw	r3,-4(fp)
 800107c:	10c0000d 	sth	r3,0(r2)
	GraphicsCommandReg = PutAPixel;		// give graphics a "write pixel" command
 8001080:	00a10034 	movhi	r2,33792
 8001084:	00c00284 	movi	r3,10
 8001088:	10c0000d 	sth	r3,0(r2)
}
 800108c:	e037883a 	mov	sp,fp
 8001090:	df000017 	ldw	fp,0(sp)
 8001094:	dec00104 	addi	sp,sp,4
 8001098:	f800283a 	ret

0800109c <ReadAPixel>:
/*****************************************************************************************
* This function read a single pixel from x,y coords specified and returns its colour
* Note returned colour is a palette number (0-255) not a 24 bit RGB value
******************************************************************************************/
int ReadAPixel (int x, int y)
{
 800109c:	defffd04 	addi	sp,sp,-12
 80010a0:	df000215 	stw	fp,8(sp)
 80010a4:	df000204 	addi	fp,sp,8
 80010a8:	e13ffe15 	stw	r4,-8(fp)
 80010ac:	e17fff15 	stw	r5,-4(fp)
	WAIT_FOR_GRAPHICS;			// is graphics ready for new command
 80010b0:	0001883a 	nop
 80010b4:	00a10034 	movhi	r2,33792
 80010b8:	1080000b 	ldhu	r2,0(r2)
 80010bc:	10bfffcc 	andi	r2,r2,65535
 80010c0:	1080004c 	andi	r2,r2,1
 80010c4:	103ffb26 	beq	r2,zero,80010b4 <__alt_data_end+0xfc0010b4>

	GraphicsX1Reg = x;			// write coords to x1, y1
 80010c8:	00a10034 	movhi	r2,33792
 80010cc:	10800084 	addi	r2,r2,2
 80010d0:	e0fffe17 	ldw	r3,-8(fp)
 80010d4:	10c0000d 	sth	r3,0(r2)
	GraphicsY1Reg = y;
 80010d8:	00a10034 	movhi	r2,33792
 80010dc:	10800104 	addi	r2,r2,4
 80010e0:	e0ffff17 	ldw	r3,-4(fp)
 80010e4:	10c0000d 	sth	r3,0(r2)
	GraphicsCommandReg = GetAPixel;		// give graphics a "get pixel" command
 80010e8:	00a10034 	movhi	r2,33792
 80010ec:	00c002c4 	movi	r3,11
 80010f0:	10c0000d 	sth	r3,0(r2)

	WAIT_FOR_GRAPHICS;			// is graphics done reading pixel
 80010f4:	0001883a 	nop
 80010f8:	00a10034 	movhi	r2,33792
 80010fc:	1080000b 	ldhu	r2,0(r2)
 8001100:	10bfffcc 	andi	r2,r2,65535
 8001104:	1080004c 	andi	r2,r2,1
 8001108:	103ffb26 	beq	r2,zero,80010f8 <__alt_data_end+0xfc0010f8>
	return (int)(GraphicsColourReg) ;		// return the palette number (colour)
 800110c:	00a10034 	movhi	r2,33792
 8001110:	10800384 	addi	r2,r2,14
 8001114:	1080000b 	ldhu	r2,0(r2)
 8001118:	10bfffcc 	andi	r2,r2,65535
}
 800111c:	e037883a 	mov	sp,fp
 8001120:	df000017 	ldw	fp,0(sp)
 8001124:	dec00104 	addi	sp,sp,4
 8001128:	f800283a 	ret

0800112c <ProgramPalette>:
** subroutine to program a hardware (graphics chip) palette number with an RGB value
** e.g. ProgramPalette(RED, 0x00FF0000) ;
****************************************************************************************************/

void ProgramPalette(int PaletteNumber, int RGB)
{
 800112c:	defffd04 	addi	sp,sp,-12
 8001130:	df000215 	stw	fp,8(sp)
 8001134:	df000204 	addi	fp,sp,8
 8001138:	e13ffe15 	stw	r4,-8(fp)
 800113c:	e17fff15 	stw	r5,-4(fp)
    WAIT_FOR_GRAPHICS;
 8001140:	0001883a 	nop
 8001144:	00a10034 	movhi	r2,33792
 8001148:	1080000b 	ldhu	r2,0(r2)
 800114c:	10bfffcc 	andi	r2,r2,65535
 8001150:	1080004c 	andi	r2,r2,1
 8001154:	103ffb26 	beq	r2,zero,8001144 <__alt_data_end+0xfc001144>
    GraphicsColourReg = PaletteNumber;
 8001158:	00a10034 	movhi	r2,33792
 800115c:	10800384 	addi	r2,r2,14
 8001160:	e0fffe17 	ldw	r3,-8(fp)
 8001164:	10c0000d 	sth	r3,0(r2)
    GraphicsX1Reg = RGB >> 16   ;          // program red value in ls.8 bit of X1 reg
 8001168:	00a10034 	movhi	r2,33792
 800116c:	10800084 	addi	r2,r2,2
 8001170:	e0ffff17 	ldw	r3,-4(fp)
 8001174:	1807d43a 	srai	r3,r3,16
 8001178:	10c0000d 	sth	r3,0(r2)
    GraphicsY1Reg = RGB ;                	 // program green and blue into 16 bit of Y1 reg
 800117c:	00a10034 	movhi	r2,33792
 8001180:	10800104 	addi	r2,r2,4
 8001184:	e0ffff17 	ldw	r3,-4(fp)
 8001188:	10c0000d 	sth	r3,0(r2)
    GraphicsCommandReg = ProgramPaletteColour;	// issue command
 800118c:	00a10034 	movhi	r2,33792
 8001190:	00c00404 	movi	r3,16
 8001194:	10c0000d 	sth	r3,0(r2)
}
 8001198:	e037883a 	mov	sp,fp
 800119c:	df000017 	ldw	fp,0(sp)
 80011a0:	dec00104 	addi	sp,sp,4
 80011a4:	f800283a 	ret

080011a8 <DrawHline>:

void DrawHline(int x1, int y1, int x2, int y2, int color)
{
 80011a8:	defffb04 	addi	sp,sp,-20
 80011ac:	df000415 	stw	fp,16(sp)
 80011b0:	df000404 	addi	fp,sp,16
 80011b4:	e13ffc15 	stw	r4,-16(fp)
 80011b8:	e17ffd15 	stw	r5,-12(fp)
 80011bc:	e1bffe15 	stw	r6,-8(fp)
 80011c0:	e1ffff15 	stw	r7,-4(fp)
    WAIT_FOR_GRAPHICS;
 80011c4:	0001883a 	nop
 80011c8:	00a10034 	movhi	r2,33792
 80011cc:	1080000b 	ldhu	r2,0(r2)
 80011d0:	10bfffcc 	andi	r2,r2,65535
 80011d4:	1080004c 	andi	r2,r2,1
 80011d8:	103ffb26 	beq	r2,zero,80011c8 <__alt_data_end+0xfc0011c8>

	GraphicsX1Reg = x1;			// write coords to x1, y1
 80011dc:	00a10034 	movhi	r2,33792
 80011e0:	10800084 	addi	r2,r2,2
 80011e4:	e0fffc17 	ldw	r3,-16(fp)
 80011e8:	10c0000d 	sth	r3,0(r2)
	GraphicsY1Reg = y1;
 80011ec:	00a10034 	movhi	r2,33792
 80011f0:	10800104 	addi	r2,r2,4
 80011f4:	e0fffd17 	ldw	r3,-12(fp)
 80011f8:	10c0000d 	sth	r3,0(r2)

	GraphicsX2Reg = x2;			// write coords to x1, y1
 80011fc:	00a10034 	movhi	r2,33792
 8001200:	10800184 	addi	r2,r2,6
 8001204:	e0fffe17 	ldw	r3,-8(fp)
 8001208:	10c0000d 	sth	r3,0(r2)
	GraphicsY2Reg = y2;
 800120c:	00a10034 	movhi	r2,33792
 8001210:	10800204 	addi	r2,r2,8
 8001214:	e0ffff17 	ldw	r3,-4(fp)
 8001218:	10c0000d 	sth	r3,0(r2)

	GraphicsColourReg = color;		// set pixel colour with a palette number
 800121c:	00a10034 	movhi	r2,33792
 8001220:	10800384 	addi	r2,r2,14
 8001224:	e0c00117 	ldw	r3,4(fp)
 8001228:	10c0000d 	sth	r3,0(r2)
	GraphicsCommandReg = DrawHLine;		// give graphics a "write pixel" command
 800122c:	00a10034 	movhi	r2,33792
 8001230:	00c00044 	movi	r3,1
 8001234:	10c0000d 	sth	r3,0(r2)
}
 8001238:	e037883a 	mov	sp,fp
 800123c:	df000017 	ldw	fp,0(sp)
 8001240:	dec00104 	addi	sp,sp,4
 8001244:	f800283a 	ret

08001248 <DrawHlineWeighted>:

void DrawHlineWeighted(int x1, int y1, int x2, int y2, int color){
 8001248:	defff804 	addi	sp,sp,-32
 800124c:	dfc00715 	stw	ra,28(sp)
 8001250:	df000615 	stw	fp,24(sp)
 8001254:	df000604 	addi	fp,sp,24
 8001258:	e13ffc15 	stw	r4,-16(fp)
 800125c:	e17ffd15 	stw	r5,-12(fp)
 8001260:	e1bffe15 	stw	r6,-8(fp)
 8001264:	e1ffff15 	stw	r7,-4(fp)
	int y;
	for (y = y1; y <= y2; y++){
 8001268:	e0bffd17 	ldw	r2,-12(fp)
 800126c:	e0bffb15 	stw	r2,-20(fp)
 8001270:	00000a06 	br	800129c <DrawHlineWeighted+0x54>
		DrawHline(x1, y, x2, y, color);
 8001274:	e0800217 	ldw	r2,8(fp)
 8001278:	d8800015 	stw	r2,0(sp)
 800127c:	e13ffc17 	ldw	r4,-16(fp)
 8001280:	e17ffb17 	ldw	r5,-20(fp)
 8001284:	e1bffe17 	ldw	r6,-8(fp)
 8001288:	e1fffb17 	ldw	r7,-20(fp)
 800128c:	80011a80 	call	80011a8 <DrawHline>
	GraphicsCommandReg = DrawHLine;		// give graphics a "write pixel" command
}

void DrawHlineWeighted(int x1, int y1, int x2, int y2, int color){
	int y;
	for (y = y1; y <= y2; y++){
 8001290:	e0bffb17 	ldw	r2,-20(fp)
 8001294:	10800044 	addi	r2,r2,1
 8001298:	e0bffb15 	stw	r2,-20(fp)
 800129c:	e0bffb17 	ldw	r2,-20(fp)
 80012a0:	e0ffff17 	ldw	r3,-4(fp)
 80012a4:	18bff30e 	bge	r3,r2,8001274 <__alt_data_end+0xfc001274>
		DrawHline(x1, y, x2, y, color);
	}
}
 80012a8:	e037883a 	mov	sp,fp
 80012ac:	dfc00117 	ldw	ra,4(sp)
 80012b0:	df000017 	ldw	fp,0(sp)
 80012b4:	dec00204 	addi	sp,sp,8
 80012b8:	f800283a 	ret

080012bc <DrawVline>:


void DrawVline(int x1, int y1, int x2, int y2, int color)
{
 80012bc:	defffb04 	addi	sp,sp,-20
 80012c0:	df000415 	stw	fp,16(sp)
 80012c4:	df000404 	addi	fp,sp,16
 80012c8:	e13ffc15 	stw	r4,-16(fp)
 80012cc:	e17ffd15 	stw	r5,-12(fp)
 80012d0:	e1bffe15 	stw	r6,-8(fp)
 80012d4:	e1ffff15 	stw	r7,-4(fp)
    WAIT_FOR_GRAPHICS;
 80012d8:	0001883a 	nop
 80012dc:	00a10034 	movhi	r2,33792
 80012e0:	1080000b 	ldhu	r2,0(r2)
 80012e4:	10bfffcc 	andi	r2,r2,65535
 80012e8:	1080004c 	andi	r2,r2,1
 80012ec:	103ffb26 	beq	r2,zero,80012dc <__alt_data_end+0xfc0012dc>

	GraphicsX1Reg = x1;			// write coords to x1, y1
 80012f0:	00a10034 	movhi	r2,33792
 80012f4:	10800084 	addi	r2,r2,2
 80012f8:	e0fffc17 	ldw	r3,-16(fp)
 80012fc:	10c0000d 	sth	r3,0(r2)
	GraphicsY1Reg = y1;
 8001300:	00a10034 	movhi	r2,33792
 8001304:	10800104 	addi	r2,r2,4
 8001308:	e0fffd17 	ldw	r3,-12(fp)
 800130c:	10c0000d 	sth	r3,0(r2)

	GraphicsX2Reg = x2;			// write coords to x1, y1
 8001310:	00a10034 	movhi	r2,33792
 8001314:	10800184 	addi	r2,r2,6
 8001318:	e0fffe17 	ldw	r3,-8(fp)
 800131c:	10c0000d 	sth	r3,0(r2)
	GraphicsY2Reg = y2;
 8001320:	00a10034 	movhi	r2,33792
 8001324:	10800204 	addi	r2,r2,8
 8001328:	e0ffff17 	ldw	r3,-4(fp)
 800132c:	10c0000d 	sth	r3,0(r2)

	GraphicsColourReg = color;		// set pixel colour with a palette number
 8001330:	00a10034 	movhi	r2,33792
 8001334:	10800384 	addi	r2,r2,14
 8001338:	e0c00117 	ldw	r3,4(fp)
 800133c:	10c0000d 	sth	r3,0(r2)
	GraphicsCommandReg = DrawVLine;		// give graphics a "write pixel" command
 8001340:	00a10034 	movhi	r2,33792
 8001344:	00c00084 	movi	r3,2
 8001348:	10c0000d 	sth	r3,0(r2)
}
 800134c:	e037883a 	mov	sp,fp
 8001350:	df000017 	ldw	fp,0(sp)
 8001354:	dec00104 	addi	sp,sp,4
 8001358:	f800283a 	ret

0800135c <DrawVlineWeighted>:

void DrawVlineWeighted(int x1, int y1, int x2, int y2, int color){
 800135c:	defff804 	addi	sp,sp,-32
 8001360:	dfc00715 	stw	ra,28(sp)
 8001364:	df000615 	stw	fp,24(sp)
 8001368:	df000604 	addi	fp,sp,24
 800136c:	e13ffc15 	stw	r4,-16(fp)
 8001370:	e17ffd15 	stw	r5,-12(fp)
 8001374:	e1bffe15 	stw	r6,-8(fp)
 8001378:	e1ffff15 	stw	r7,-4(fp)
	int x;
	for (x = x1; x <= x2; x++){
 800137c:	e0bffc17 	ldw	r2,-16(fp)
 8001380:	e0bffb15 	stw	r2,-20(fp)
 8001384:	00000a06 	br	80013b0 <DrawVlineWeighted+0x54>
		DrawVline(x, y1, x, y2, color);
 8001388:	e0800217 	ldw	r2,8(fp)
 800138c:	d8800015 	stw	r2,0(sp)
 8001390:	e13ffb17 	ldw	r4,-20(fp)
 8001394:	e17ffd17 	ldw	r5,-12(fp)
 8001398:	e1bffb17 	ldw	r6,-20(fp)
 800139c:	e1ffff17 	ldw	r7,-4(fp)
 80013a0:	80012bc0 	call	80012bc <DrawVline>
	GraphicsCommandReg = DrawVLine;		// give graphics a "write pixel" command
}

void DrawVlineWeighted(int x1, int y1, int x2, int y2, int color){
	int x;
	for (x = x1; x <= x2; x++){
 80013a4:	e0bffb17 	ldw	r2,-20(fp)
 80013a8:	10800044 	addi	r2,r2,1
 80013ac:	e0bffb15 	stw	r2,-20(fp)
 80013b0:	e0bffb17 	ldw	r2,-20(fp)
 80013b4:	e0fffe17 	ldw	r3,-8(fp)
 80013b8:	18bff30e 	bge	r3,r2,8001388 <__alt_data_end+0xfc001388>
		DrawVline(x, y1, x, y2, color);
	}
}
 80013bc:	e037883a 	mov	sp,fp
 80013c0:	dfc00117 	ldw	ra,4(sp)
 80013c4:	df000017 	ldw	fp,0(sp)
 80013c8:	dec00204 	addi	sp,sp,8
 80013cc:	f800283a 	ret

080013d0 <Drawline>:

void Drawline(int x1, int y1, int x2, int y2, int color)
{
 80013d0:	defffb04 	addi	sp,sp,-20
 80013d4:	df000415 	stw	fp,16(sp)
 80013d8:	df000404 	addi	fp,sp,16
 80013dc:	e13ffc15 	stw	r4,-16(fp)
 80013e0:	e17ffd15 	stw	r5,-12(fp)
 80013e4:	e1bffe15 	stw	r6,-8(fp)
 80013e8:	e1ffff15 	stw	r7,-4(fp)
    WAIT_FOR_GRAPHICS;
 80013ec:	0001883a 	nop
 80013f0:	00a10034 	movhi	r2,33792
 80013f4:	1080000b 	ldhu	r2,0(r2)
 80013f8:	10bfffcc 	andi	r2,r2,65535
 80013fc:	1080004c 	andi	r2,r2,1
 8001400:	103ffb26 	beq	r2,zero,80013f0 <__alt_data_end+0xfc0013f0>

	GraphicsX1Reg = x1;			// write coords to x1, y1
 8001404:	00a10034 	movhi	r2,33792
 8001408:	10800084 	addi	r2,r2,2
 800140c:	e0fffc17 	ldw	r3,-16(fp)
 8001410:	10c0000d 	sth	r3,0(r2)
	GraphicsY1Reg = y1;
 8001414:	00a10034 	movhi	r2,33792
 8001418:	10800104 	addi	r2,r2,4
 800141c:	e0fffd17 	ldw	r3,-12(fp)
 8001420:	10c0000d 	sth	r3,0(r2)

	GraphicsX2Reg = x2;			// write coords to x1, y1
 8001424:	00a10034 	movhi	r2,33792
 8001428:	10800184 	addi	r2,r2,6
 800142c:	e0fffe17 	ldw	r3,-8(fp)
 8001430:	10c0000d 	sth	r3,0(r2)
	GraphicsY2Reg = y2;
 8001434:	00a10034 	movhi	r2,33792
 8001438:	10800204 	addi	r2,r2,8
 800143c:	e0ffff17 	ldw	r3,-4(fp)
 8001440:	10c0000d 	sth	r3,0(r2)

	GraphicsColourReg = color;		// set pixel colour with a palette number
 8001444:	00a10034 	movhi	r2,33792
 8001448:	10800384 	addi	r2,r2,14
 800144c:	e0c00117 	ldw	r3,4(fp)
 8001450:	10c0000d 	sth	r3,0(r2)
	GraphicsCommandReg = DrawLine;		// give graphics a "write pixel" command
 8001454:	00a10034 	movhi	r2,33792
 8001458:	00c000c4 	movi	r3,3
 800145c:	10c0000d 	sth	r3,0(r2)
}
 8001460:	e037883a 	mov	sp,fp
 8001464:	df000017 	ldw	fp,0(sp)
 8001468:	dec00104 	addi	sp,sp,4
 800146c:	f800283a 	ret

08001470 <DrawSolidRectangle>:

void DrawSolidRectangle(int x1, int y1, int x2, int y2, int x3, int y3, int x4, int y4, int color){
 8001470:	defff804 	addi	sp,sp,-32
 8001474:	dfc00715 	stw	ra,28(sp)
 8001478:	df000615 	stw	fp,24(sp)
 800147c:	df000604 	addi	fp,sp,24
 8001480:	e13ffc15 	stw	r4,-16(fp)
 8001484:	e17ffd15 	stw	r5,-12(fp)
 8001488:	e1bffe15 	stw	r6,-8(fp)
 800148c:	e1ffff15 	stw	r7,-4(fp)
    int i;
    for(i=0; i<y3-y1; i++){
 8001490:	e03ffb15 	stw	zero,-20(fp)
 8001494:	00000f06 	br	80014d4 <DrawSolidRectangle+0x64>
        DrawHline(x1,y1+i,x2,y2+i,color);
 8001498:	e0fffd17 	ldw	r3,-12(fp)
 800149c:	e0bffb17 	ldw	r2,-20(fp)
 80014a0:	188b883a 	add	r5,r3,r2
 80014a4:	e0ffff17 	ldw	r3,-4(fp)
 80014a8:	e0bffb17 	ldw	r2,-20(fp)
 80014ac:	1887883a 	add	r3,r3,r2
 80014b0:	e0800617 	ldw	r2,24(fp)
 80014b4:	d8800015 	stw	r2,0(sp)
 80014b8:	e13ffc17 	ldw	r4,-16(fp)
 80014bc:	e1bffe17 	ldw	r6,-8(fp)
 80014c0:	180f883a 	mov	r7,r3
 80014c4:	80011a80 	call	80011a8 <DrawHline>
	GraphicsCommandReg = DrawLine;		// give graphics a "write pixel" command
}

void DrawSolidRectangle(int x1, int y1, int x2, int y2, int x3, int y3, int x4, int y4, int color){
    int i;
    for(i=0; i<y3-y1; i++){
 80014c8:	e0bffb17 	ldw	r2,-20(fp)
 80014cc:	10800044 	addi	r2,r2,1
 80014d0:	e0bffb15 	stw	r2,-20(fp)
 80014d4:	e0c00317 	ldw	r3,12(fp)
 80014d8:	e0bffd17 	ldw	r2,-12(fp)
 80014dc:	1885c83a 	sub	r2,r3,r2
 80014e0:	e0fffb17 	ldw	r3,-20(fp)
 80014e4:	18bfec16 	blt	r3,r2,8001498 <__alt_data_end+0xfc001498>
        DrawHline(x1,y1+i,x2,y2+i,color);
    }
}
 80014e8:	e037883a 	mov	sp,fp
 80014ec:	dfc00117 	ldw	ra,4(sp)
 80014f0:	df000017 	ldw	fp,0(sp)
 80014f4:	dec00204 	addi	sp,sp,8
 80014f8:	f800283a 	ret

080014fc <DrawRectangle>:

void DrawRectangle(int x1, int y1, int x2, int y2, int x3, int y3, int x4, int y4, int color){
 80014fc:	defff904 	addi	sp,sp,-28
 8001500:	dfc00615 	stw	ra,24(sp)
 8001504:	df000515 	stw	fp,20(sp)
 8001508:	df000504 	addi	fp,sp,20
 800150c:	e13ffc15 	stw	r4,-16(fp)
 8001510:	e17ffd15 	stw	r5,-12(fp)
 8001514:	e1bffe15 	stw	r6,-8(fp)
 8001518:	e1ffff15 	stw	r7,-4(fp)
    DrawHline(x1,y1,x2,y2,color);
 800151c:	e0800617 	ldw	r2,24(fp)
 8001520:	d8800015 	stw	r2,0(sp)
 8001524:	e13ffc17 	ldw	r4,-16(fp)
 8001528:	e17ffd17 	ldw	r5,-12(fp)
 800152c:	e1bffe17 	ldw	r6,-8(fp)
 8001530:	e1ffff17 	ldw	r7,-4(fp)
 8001534:	80011a80 	call	80011a8 <DrawHline>
    DrawHline(x3,y3,x4,y4,color);
 8001538:	e0800617 	ldw	r2,24(fp)
 800153c:	d8800015 	stw	r2,0(sp)
 8001540:	e1000217 	ldw	r4,8(fp)
 8001544:	e1400317 	ldw	r5,12(fp)
 8001548:	e1800417 	ldw	r6,16(fp)
 800154c:	e1c00517 	ldw	r7,20(fp)
 8001550:	80011a80 	call	80011a8 <DrawHline>
    DrawVline(x1,y1,x3,y3,color);
 8001554:	e0800617 	ldw	r2,24(fp)
 8001558:	d8800015 	stw	r2,0(sp)
 800155c:	e13ffc17 	ldw	r4,-16(fp)
 8001560:	e17ffd17 	ldw	r5,-12(fp)
 8001564:	e1800217 	ldw	r6,8(fp)
 8001568:	e1c00317 	ldw	r7,12(fp)
 800156c:	80012bc0 	call	80012bc <DrawVline>
    DrawVline(x2,y2,x4,y4,color);
 8001570:	e0800617 	ldw	r2,24(fp)
 8001574:	d8800015 	stw	r2,0(sp)
 8001578:	e13ffe17 	ldw	r4,-8(fp)
 800157c:	e17fff17 	ldw	r5,-4(fp)
 8001580:	e1800417 	ldw	r6,16(fp)
 8001584:	e1c00517 	ldw	r7,20(fp)
 8001588:	80012bc0 	call	80012bc <DrawVline>
}
 800158c:	e037883a 	mov	sp,fp
 8001590:	dfc00117 	ldw	ra,4(sp)
 8001594:	df000017 	ldw	fp,0(sp)
 8001598:	dec00204 	addi	sp,sp,8
 800159c:	f800283a 	ret

080015a0 <waitFor>:

void waitFor (unsigned int secs) {
 80015a0:	defffc04 	addi	sp,sp,-16
 80015a4:	dfc00315 	stw	ra,12(sp)
 80015a8:	df000215 	stw	fp,8(sp)
 80015ac:	df000204 	addi	fp,sp,8
 80015b0:	e13fff15 	stw	r4,-4(fp)
    unsigned int retTime = time(0) + secs;
 80015b4:	0009883a 	mov	r4,zero
 80015b8:	8007e340 	call	8007e34 <time>
 80015bc:	1007883a 	mov	r3,r2
 80015c0:	e0bfff17 	ldw	r2,-4(fp)
 80015c4:	1885883a 	add	r2,r3,r2
 80015c8:	e0bffe15 	stw	r2,-8(fp)
    while (time(0) < retTime);
 80015cc:	0001883a 	nop
 80015d0:	0009883a 	mov	r4,zero
 80015d4:	8007e340 	call	8007e34 <time>
 80015d8:	1007883a 	mov	r3,r2
 80015dc:	e0bffe17 	ldw	r2,-8(fp)
 80015e0:	18bffb36 	bltu	r3,r2,80015d0 <__alt_data_end+0xfc0015d0>
}
 80015e4:	e037883a 	mov	sp,fp
 80015e8:	dfc00117 	ldw	ra,4(sp)
 80015ec:	df000017 	ldw	fp,0(sp)
 80015f0:	dec00204 	addi	sp,sp,8
 80015f4:	f800283a 	ret

080015f8 <clearScreen>:

void clearScreen(){
 80015f8:	defffd04 	addi	sp,sp,-12
 80015fc:	dfc00215 	stw	ra,8(sp)
 8001600:	df000115 	stw	fp,4(sp)
 8001604:	df000104 	addi	fp,sp,4
	DrawHlineWeighted(0, 0, 800, 480, BLACK);
 8001608:	d8000015 	stw	zero,0(sp)
 800160c:	0009883a 	mov	r4,zero
 8001610:	000b883a 	mov	r5,zero
 8001614:	0180c804 	movi	r6,800
 8001618:	01c07804 	movi	r7,480
 800161c:	80012480 	call	8001248 <DrawHlineWeighted>
}
 8001620:	e037883a 	mov	sp,fp
 8001624:	dfc00117 	ldw	ra,4(sp)
 8001628:	df000017 	ldw	fp,0(sp)
 800162c:	dec00204 	addi	sp,sp,8
 8001630:	f800283a 	ret

08001634 <write>:

void write(int x, int y, char *string, int spacing, int color, int backgroundcolor){
 8001634:	defff604 	addi	sp,sp,-40
 8001638:	dfc00915 	stw	ra,36(sp)
 800163c:	df000815 	stw	fp,32(sp)
 8001640:	dc000715 	stw	r16,28(sp)
 8001644:	df000804 	addi	fp,sp,32
 8001648:	e13ffb15 	stw	r4,-20(fp)
 800164c:	e17ffc15 	stw	r5,-16(fp)
 8001650:	e1bffd15 	stw	r6,-12(fp)
 8001654:	e1fffe15 	stw	r7,-8(fp)
	int i;
	for (i = 0; i < strlen(string); i++){
 8001658:	e03ffa15 	stw	zero,-24(fp)
 800165c:	00001606 	br	80016b8 <write+0x84>
		OutGraphicsCharFont2a(x+(i*spacing), y, color, backgroundcolor, string[i], 1);
 8001660:	e0fffa17 	ldw	r3,-24(fp)
 8001664:	e0bffe17 	ldw	r2,-8(fp)
 8001668:	1887383a 	mul	r3,r3,r2
 800166c:	e0bffb17 	ldw	r2,-20(fp)
 8001670:	1889883a 	add	r4,r3,r2
 8001674:	e0bffa17 	ldw	r2,-24(fp)
 8001678:	e0fffd17 	ldw	r3,-12(fp)
 800167c:	1885883a 	add	r2,r3,r2
 8001680:	10800003 	ldbu	r2,0(r2)
 8001684:	10803fcc 	andi	r2,r2,255
 8001688:	1080201c 	xori	r2,r2,128
 800168c:	10bfe004 	addi	r2,r2,-128
 8001690:	d8800015 	stw	r2,0(sp)
 8001694:	00800044 	movi	r2,1
 8001698:	d8800115 	stw	r2,4(sp)
 800169c:	e17ffc17 	ldw	r5,-16(fp)
 80016a0:	e1800217 	ldw	r6,8(fp)
 80016a4:	e1c00317 	ldw	r7,12(fp)
 80016a8:	80003a40 	call	80003a4 <OutGraphicsCharFont2a>
	DrawHlineWeighted(0, 0, 800, 480, BLACK);
}

void write(int x, int y, char *string, int spacing, int color, int backgroundcolor){
	int i;
	for (i = 0; i < strlen(string); i++){
 80016ac:	e0bffa17 	ldw	r2,-24(fp)
 80016b0:	10800044 	addi	r2,r2,1
 80016b4:	e0bffa15 	stw	r2,-24(fp)
 80016b8:	e43ffa17 	ldw	r16,-24(fp)
 80016bc:	e13ffd17 	ldw	r4,-12(fp)
 80016c0:	80046f40 	call	80046f4 <strlen>
 80016c4:	80bfe636 	bltu	r16,r2,8001660 <__alt_data_end+0xfc001660>
		OutGraphicsCharFont2a(x+(i*spacing), y, color, backgroundcolor, string[i], 1);
	}
}
 80016c8:	e6ffff04 	addi	sp,fp,-4
 80016cc:	dfc00217 	ldw	ra,8(sp)
 80016d0:	df000117 	ldw	fp,4(sp)
 80016d4:	dc000017 	ldw	r16,0(sp)
 80016d8:	dec00304 	addi	sp,sp,12
 80016dc:	f800283a 	ret

080016e0 <drawBox1>:

void drawBox1(int colour){
 80016e0:	defff204 	addi	sp,sp,-56
 80016e4:	dfc00d15 	stw	ra,52(sp)
 80016e8:	df000c15 	stw	fp,48(sp)
 80016ec:	df000c04 	addi	fp,sp,48
 80016f0:	e13fff15 	stw	r4,-4(fp)
	int border = 10;
 80016f4:	00800284 	movi	r2,10
 80016f8:	e0bff915 	stw	r2,-28(fp)
	int x_s = 150;
 80016fc:	00802584 	movi	r2,150
 8001700:	e0bffa15 	stw	r2,-24(fp)
	int y_s = 150;
 8001704:	00802584 	movi	r2,150
 8001708:	e0bffb15 	stw	r2,-20(fp)
	int b_x1 = 167;
 800170c:	008029c4 	movi	r2,167
 8001710:	e0bffc15 	stw	r2,-16(fp)
	int b_y1 = 100;
 8001714:	00801904 	movi	r2,100
 8001718:	e0bffd15 	stw	r2,-12(fp)
	int line_weight = 6;
 800171c:	00800184 	movi	r2,6
 8001720:	e0bffe15 	stw	r2,-8(fp)

	DrawRectangle(b_x1, b_y1, b_x1+x_s, b_y1, b_x1, b_y1+y_s, b_x1+x_s, b_y1+y_s, WHITE);
 8001724:	e0fffc17 	ldw	r3,-16(fp)
 8001728:	e0bffa17 	ldw	r2,-24(fp)
 800172c:	188d883a 	add	r6,r3,r2
 8001730:	e0fffd17 	ldw	r3,-12(fp)
 8001734:	e0bffb17 	ldw	r2,-20(fp)
 8001738:	1889883a 	add	r4,r3,r2
 800173c:	e0fffc17 	ldw	r3,-16(fp)
 8001740:	e0bffa17 	ldw	r2,-24(fp)
 8001744:	1887883a 	add	r3,r3,r2
 8001748:	e17ffd17 	ldw	r5,-12(fp)
 800174c:	e0bffb17 	ldw	r2,-20(fp)
 8001750:	2885883a 	add	r2,r5,r2
 8001754:	e17ffc17 	ldw	r5,-16(fp)
 8001758:	d9400015 	stw	r5,0(sp)
 800175c:	d9000115 	stw	r4,4(sp)
 8001760:	d8c00215 	stw	r3,8(sp)
 8001764:	d8800315 	stw	r2,12(sp)
 8001768:	00800044 	movi	r2,1
 800176c:	d8800415 	stw	r2,16(sp)
 8001770:	e13ffc17 	ldw	r4,-16(fp)
 8001774:	e17ffd17 	ldw	r5,-12(fp)
 8001778:	e1fffd17 	ldw	r7,-12(fp)
 800177c:	80014fc0 	call	80014fc <DrawRectangle>
	DrawSolidRectangle(b_x1+border, b_y1+border, b_x1+x_s-border, b_y1+border, b_x1+border, b_y1+y_s-border, b_x1+x_s-border, b_y1+y_s-border, colour);
 8001780:	e0fffc17 	ldw	r3,-16(fp)
 8001784:	e0bff917 	ldw	r2,-28(fp)
 8001788:	1895883a 	add	r10,r3,r2
 800178c:	e0fffd17 	ldw	r3,-12(fp)
 8001790:	e0bff917 	ldw	r2,-28(fp)
 8001794:	1893883a 	add	r9,r3,r2
 8001798:	e0fffc17 	ldw	r3,-16(fp)
 800179c:	e0bffa17 	ldw	r2,-24(fp)
 80017a0:	1887883a 	add	r3,r3,r2
 80017a4:	e0bff917 	ldw	r2,-28(fp)
 80017a8:	1891c83a 	sub	r8,r3,r2
 80017ac:	e0fffd17 	ldw	r3,-12(fp)
 80017b0:	e0bff917 	ldw	r2,-28(fp)
 80017b4:	188f883a 	add	r7,r3,r2
 80017b8:	e0fffc17 	ldw	r3,-16(fp)
 80017bc:	e0bff917 	ldw	r2,-28(fp)
 80017c0:	188b883a 	add	r5,r3,r2
 80017c4:	e0fffd17 	ldw	r3,-12(fp)
 80017c8:	e0bffb17 	ldw	r2,-20(fp)
 80017cc:	1887883a 	add	r3,r3,r2
 80017d0:	e0bff917 	ldw	r2,-28(fp)
 80017d4:	1889c83a 	sub	r4,r3,r2
 80017d8:	e0fffc17 	ldw	r3,-16(fp)
 80017dc:	e0bffa17 	ldw	r2,-24(fp)
 80017e0:	1887883a 	add	r3,r3,r2
 80017e4:	e0bff917 	ldw	r2,-28(fp)
 80017e8:	1887c83a 	sub	r3,r3,r2
 80017ec:	e1bffd17 	ldw	r6,-12(fp)
 80017f0:	e0bffb17 	ldw	r2,-20(fp)
 80017f4:	308d883a 	add	r6,r6,r2
 80017f8:	e0bff917 	ldw	r2,-28(fp)
 80017fc:	3085c83a 	sub	r2,r6,r2
 8001800:	d9400015 	stw	r5,0(sp)
 8001804:	d9000115 	stw	r4,4(sp)
 8001808:	d8c00215 	stw	r3,8(sp)
 800180c:	d8800315 	stw	r2,12(sp)
 8001810:	e0bfff17 	ldw	r2,-4(fp)
 8001814:	d8800415 	stw	r2,16(sp)
 8001818:	5009883a 	mov	r4,r10
 800181c:	480b883a 	mov	r5,r9
 8001820:	400d883a 	mov	r6,r8
 8001824:	80014700 	call	8001470 <DrawSolidRectangle>

	DrawVlineWeighted(b_x1+((x_s-line_weight)/2), b_y1+border*2, b_x1+((x_s-line_weight)/2)+line_weight, y_s+b_y1-border*2, WHITE);
 8001828:	e0fffa17 	ldw	r3,-24(fp)
 800182c:	e0bffe17 	ldw	r2,-8(fp)
 8001830:	1885c83a 	sub	r2,r3,r2
 8001834:	1006d7fa 	srli	r3,r2,31
 8001838:	1885883a 	add	r2,r3,r2
 800183c:	1005d07a 	srai	r2,r2,1
 8001840:	1007883a 	mov	r3,r2
 8001844:	e0bffc17 	ldw	r2,-16(fp)
 8001848:	188f883a 	add	r7,r3,r2
 800184c:	e0bff917 	ldw	r2,-28(fp)
 8001850:	1085883a 	add	r2,r2,r2
 8001854:	1007883a 	mov	r3,r2
 8001858:	e0bffd17 	ldw	r2,-12(fp)
 800185c:	188b883a 	add	r5,r3,r2
 8001860:	e0fffa17 	ldw	r3,-24(fp)
 8001864:	e0bffe17 	ldw	r2,-8(fp)
 8001868:	1885c83a 	sub	r2,r3,r2
 800186c:	1006d7fa 	srli	r3,r2,31
 8001870:	1885883a 	add	r2,r3,r2
 8001874:	1005d07a 	srai	r2,r2,1
 8001878:	1007883a 	mov	r3,r2
 800187c:	e0bffc17 	ldw	r2,-16(fp)
 8001880:	1887883a 	add	r3,r3,r2
 8001884:	e0bffe17 	ldw	r2,-8(fp)
 8001888:	188d883a 	add	r6,r3,r2
 800188c:	e0fffb17 	ldw	r3,-20(fp)
 8001890:	e0bffd17 	ldw	r2,-12(fp)
 8001894:	1887883a 	add	r3,r3,r2
 8001898:	e13ff917 	ldw	r4,-28(fp)
 800189c:	0005883a 	mov	r2,zero
 80018a0:	1105c83a 	sub	r2,r2,r4
 80018a4:	1085883a 	add	r2,r2,r2
 80018a8:	1887883a 	add	r3,r3,r2
 80018ac:	00800044 	movi	r2,1
 80018b0:	d8800015 	stw	r2,0(sp)
 80018b4:	3809883a 	mov	r4,r7
 80018b8:	180f883a 	mov	r7,r3
 80018bc:	800135c0 	call	800135c <DrawVlineWeighted>
	DrawHlineWeighted(b_x1+border*2, b_y1+((y_s-line_weight)/2), x_s+b_x1-border*2, b_y1+((y_s-line_weight)/2)+line_weight, WHITE);
 80018c0:	e0bff917 	ldw	r2,-28(fp)
 80018c4:	1085883a 	add	r2,r2,r2
 80018c8:	1007883a 	mov	r3,r2
 80018cc:	e0bffc17 	ldw	r2,-16(fp)
 80018d0:	188f883a 	add	r7,r3,r2
 80018d4:	e0fffb17 	ldw	r3,-20(fp)
 80018d8:	e0bffe17 	ldw	r2,-8(fp)
 80018dc:	1885c83a 	sub	r2,r3,r2
 80018e0:	1006d7fa 	srli	r3,r2,31
 80018e4:	1885883a 	add	r2,r3,r2
 80018e8:	1005d07a 	srai	r2,r2,1
 80018ec:	1007883a 	mov	r3,r2
 80018f0:	e0bffd17 	ldw	r2,-12(fp)
 80018f4:	188b883a 	add	r5,r3,r2
 80018f8:	e0fffa17 	ldw	r3,-24(fp)
 80018fc:	e0bffc17 	ldw	r2,-16(fp)
 8001900:	1887883a 	add	r3,r3,r2
 8001904:	e13ff917 	ldw	r4,-28(fp)
 8001908:	0005883a 	mov	r2,zero
 800190c:	1105c83a 	sub	r2,r2,r4
 8001910:	1085883a 	add	r2,r2,r2
 8001914:	188d883a 	add	r6,r3,r2
 8001918:	e0fffb17 	ldw	r3,-20(fp)
 800191c:	e0bffe17 	ldw	r2,-8(fp)
 8001920:	1885c83a 	sub	r2,r3,r2
 8001924:	1006d7fa 	srli	r3,r2,31
 8001928:	1885883a 	add	r2,r3,r2
 800192c:	1005d07a 	srai	r2,r2,1
 8001930:	1007883a 	mov	r3,r2
 8001934:	e0bffd17 	ldw	r2,-12(fp)
 8001938:	1887883a 	add	r3,r3,r2
 800193c:	e0bffe17 	ldw	r2,-8(fp)
 8001940:	1887883a 	add	r3,r3,r2
 8001944:	00800044 	movi	r2,1
 8001948:	d8800015 	stw	r2,0(sp)
 800194c:	3809883a 	mov	r4,r7
 8001950:	180f883a 	mov	r7,r3
 8001954:	80012480 	call	8001248 <DrawHlineWeighted>

	write(b_x1+border*2, b_y1+y_s+border*3, "Respond", 16, WHITE, BLACK);
 8001958:	e0bff917 	ldw	r2,-28(fp)
 800195c:	1085883a 	add	r2,r2,r2
 8001960:	1007883a 	mov	r3,r2
 8001964:	e0bffc17 	ldw	r2,-16(fp)
 8001968:	188b883a 	add	r5,r3,r2
 800196c:	e0fffd17 	ldw	r3,-12(fp)
 8001970:	e0bffb17 	ldw	r2,-20(fp)
 8001974:	1889883a 	add	r4,r3,r2
 8001978:	e0fff917 	ldw	r3,-28(fp)
 800197c:	1805883a 	mov	r2,r3
 8001980:	1085883a 	add	r2,r2,r2
 8001984:	10c5883a 	add	r2,r2,r3
 8001988:	2087883a 	add	r3,r4,r2
 800198c:	00800044 	movi	r2,1
 8001990:	d8800015 	stw	r2,0(sp)
 8001994:	d8000115 	stw	zero,4(sp)
 8001998:	2809883a 	mov	r4,r5
 800199c:	180b883a 	mov	r5,r3
 80019a0:	018200b4 	movhi	r6,2050
 80019a4:	31851b04 	addi	r6,r6,5228
 80019a8:	01c00404 	movi	r7,16
 80019ac:	80016340 	call	8001634 <write>
}
 80019b0:	e037883a 	mov	sp,fp
 80019b4:	dfc00117 	ldw	ra,4(sp)
 80019b8:	df000017 	ldw	fp,0(sp)
 80019bc:	dec00204 	addi	sp,sp,8
 80019c0:	f800283a 	ret

080019c4 <drawBox2>:

void drawBox2(int colour){
 80019c4:	defff004 	addi	sp,sp,-64
 80019c8:	dfc00f15 	stw	ra,60(sp)
 80019cc:	df000e15 	stw	fp,56(sp)
 80019d0:	dc400d15 	stw	r17,52(sp)
 80019d4:	dc000c15 	stw	r16,48(sp)
 80019d8:	df000e04 	addi	fp,sp,56
 80019dc:	e13ffd15 	stw	r4,-12(fp)
	int border = 10;
 80019e0:	00800284 	movi	r2,10
 80019e4:	e0bff715 	stw	r2,-36(fp)
	int x_s = 150;
 80019e8:	00802584 	movi	r2,150
 80019ec:	e0bff815 	stw	r2,-32(fp)
	int y_s = 150;
 80019f0:	00802584 	movi	r2,150
 80019f4:	e0bff915 	stw	r2,-28(fp)
	int b_x2 = 483;
 80019f8:	008078c4 	movi	r2,483
 80019fc:	e0bffa15 	stw	r2,-24(fp)
	int b_y2 = 100;
 8001a00:	00801904 	movi	r2,100
 8001a04:	e0bffb15 	stw	r2,-20(fp)
	int line_weight = 6;
 8001a08:	00800184 	movi	r2,6
 8001a0c:	e0bffc15 	stw	r2,-16(fp)

	DrawRectangle(b_x2, b_y2, b_x2+x_s, b_y2, b_x2, b_y2+y_s, b_x2+x_s, b_y2+y_s, WHITE);
 8001a10:	e0fffa17 	ldw	r3,-24(fp)
 8001a14:	e0bff817 	ldw	r2,-32(fp)
 8001a18:	188d883a 	add	r6,r3,r2
 8001a1c:	e0fffb17 	ldw	r3,-20(fp)
 8001a20:	e0bff917 	ldw	r2,-28(fp)
 8001a24:	1889883a 	add	r4,r3,r2
 8001a28:	e0fffa17 	ldw	r3,-24(fp)
 8001a2c:	e0bff817 	ldw	r2,-32(fp)
 8001a30:	1887883a 	add	r3,r3,r2
 8001a34:	e17ffb17 	ldw	r5,-20(fp)
 8001a38:	e0bff917 	ldw	r2,-28(fp)
 8001a3c:	2885883a 	add	r2,r5,r2
 8001a40:	e17ffa17 	ldw	r5,-24(fp)
 8001a44:	d9400015 	stw	r5,0(sp)
 8001a48:	d9000115 	stw	r4,4(sp)
 8001a4c:	d8c00215 	stw	r3,8(sp)
 8001a50:	d8800315 	stw	r2,12(sp)
 8001a54:	00800044 	movi	r2,1
 8001a58:	d8800415 	stw	r2,16(sp)
 8001a5c:	e13ffa17 	ldw	r4,-24(fp)
 8001a60:	e17ffb17 	ldw	r5,-20(fp)
 8001a64:	e1fffb17 	ldw	r7,-20(fp)
 8001a68:	80014fc0 	call	80014fc <DrawRectangle>
	DrawSolidRectangle(b_x2+border, b_y2+border, b_x2+x_s-border, b_y2+border, b_x2+border, b_y2+y_s-border, b_x2+x_s-border, b_y2+y_s-border, colour);
 8001a6c:	e0fffa17 	ldw	r3,-24(fp)
 8001a70:	e0bff717 	ldw	r2,-36(fp)
 8001a74:	1895883a 	add	r10,r3,r2
 8001a78:	e0fffb17 	ldw	r3,-20(fp)
 8001a7c:	e0bff717 	ldw	r2,-36(fp)
 8001a80:	1893883a 	add	r9,r3,r2
 8001a84:	e0fffa17 	ldw	r3,-24(fp)
 8001a88:	e0bff817 	ldw	r2,-32(fp)
 8001a8c:	1887883a 	add	r3,r3,r2
 8001a90:	e0bff717 	ldw	r2,-36(fp)
 8001a94:	1891c83a 	sub	r8,r3,r2
 8001a98:	e0fffb17 	ldw	r3,-20(fp)
 8001a9c:	e0bff717 	ldw	r2,-36(fp)
 8001aa0:	188f883a 	add	r7,r3,r2
 8001aa4:	e0fffa17 	ldw	r3,-24(fp)
 8001aa8:	e0bff717 	ldw	r2,-36(fp)
 8001aac:	188b883a 	add	r5,r3,r2
 8001ab0:	e0fffb17 	ldw	r3,-20(fp)
 8001ab4:	e0bff917 	ldw	r2,-28(fp)
 8001ab8:	1887883a 	add	r3,r3,r2
 8001abc:	e0bff717 	ldw	r2,-36(fp)
 8001ac0:	1889c83a 	sub	r4,r3,r2
 8001ac4:	e0fffa17 	ldw	r3,-24(fp)
 8001ac8:	e0bff817 	ldw	r2,-32(fp)
 8001acc:	1887883a 	add	r3,r3,r2
 8001ad0:	e0bff717 	ldw	r2,-36(fp)
 8001ad4:	1887c83a 	sub	r3,r3,r2
 8001ad8:	e1bffb17 	ldw	r6,-20(fp)
 8001adc:	e0bff917 	ldw	r2,-28(fp)
 8001ae0:	308d883a 	add	r6,r6,r2
 8001ae4:	e0bff717 	ldw	r2,-36(fp)
 8001ae8:	3085c83a 	sub	r2,r6,r2
 8001aec:	d9400015 	stw	r5,0(sp)
 8001af0:	d9000115 	stw	r4,4(sp)
 8001af4:	d8c00215 	stw	r3,8(sp)
 8001af8:	d8800315 	stw	r2,12(sp)
 8001afc:	e0bffd17 	ldw	r2,-12(fp)
 8001b00:	d8800415 	stw	r2,16(sp)
 8001b04:	5009883a 	mov	r4,r10
 8001b08:	480b883a 	mov	r5,r9
 8001b0c:	400d883a 	mov	r6,r8
 8001b10:	80014700 	call	8001470 <DrawSolidRectangle>

	DrawVlineWeighted(b_x2+((x_s-line_weight)/2), b_y2+border*2, b_x2+((x_s-line_weight)/2)+line_weight, y_s+b_y2-border*2, WHITE);
 8001b14:	e0fff817 	ldw	r3,-32(fp)
 8001b18:	e0bffc17 	ldw	r2,-16(fp)
 8001b1c:	1885c83a 	sub	r2,r3,r2
 8001b20:	1006d7fa 	srli	r3,r2,31
 8001b24:	1885883a 	add	r2,r3,r2
 8001b28:	1005d07a 	srai	r2,r2,1
 8001b2c:	1007883a 	mov	r3,r2
 8001b30:	e0bffa17 	ldw	r2,-24(fp)
 8001b34:	188f883a 	add	r7,r3,r2
 8001b38:	e0bff717 	ldw	r2,-36(fp)
 8001b3c:	1085883a 	add	r2,r2,r2
 8001b40:	1007883a 	mov	r3,r2
 8001b44:	e0bffb17 	ldw	r2,-20(fp)
 8001b48:	188b883a 	add	r5,r3,r2
 8001b4c:	e0fff817 	ldw	r3,-32(fp)
 8001b50:	e0bffc17 	ldw	r2,-16(fp)
 8001b54:	1885c83a 	sub	r2,r3,r2
 8001b58:	1006d7fa 	srli	r3,r2,31
 8001b5c:	1885883a 	add	r2,r3,r2
 8001b60:	1005d07a 	srai	r2,r2,1
 8001b64:	1007883a 	mov	r3,r2
 8001b68:	e0bffa17 	ldw	r2,-24(fp)
 8001b6c:	1887883a 	add	r3,r3,r2
 8001b70:	e0bffc17 	ldw	r2,-16(fp)
 8001b74:	188d883a 	add	r6,r3,r2
 8001b78:	e0fff917 	ldw	r3,-28(fp)
 8001b7c:	e0bffb17 	ldw	r2,-20(fp)
 8001b80:	1887883a 	add	r3,r3,r2
 8001b84:	e13ff717 	ldw	r4,-36(fp)
 8001b88:	0005883a 	mov	r2,zero
 8001b8c:	1105c83a 	sub	r2,r2,r4
 8001b90:	1085883a 	add	r2,r2,r2
 8001b94:	1887883a 	add	r3,r3,r2
 8001b98:	00800044 	movi	r2,1
 8001b9c:	d8800015 	stw	r2,0(sp)
 8001ba0:	3809883a 	mov	r4,r7
 8001ba4:	180f883a 	mov	r7,r3
 8001ba8:	800135c0 	call	800135c <DrawVlineWeighted>
	DrawVlineWeighted(b_x2+((x_s-line_weight)/2)-border*3, b_y2+border*2, b_x2+((x_s-line_weight)/2)+line_weight-border*3, y_s+b_y2-border*2, WHITE);
 8001bac:	e0fff817 	ldw	r3,-32(fp)
 8001bb0:	e0bffc17 	ldw	r2,-16(fp)
 8001bb4:	1885c83a 	sub	r2,r3,r2
 8001bb8:	1006d7fa 	srli	r3,r2,31
 8001bbc:	1885883a 	add	r2,r3,r2
 8001bc0:	1005d07a 	srai	r2,r2,1
 8001bc4:	1007883a 	mov	r3,r2
 8001bc8:	e0bffa17 	ldw	r2,-24(fp)
 8001bcc:	1887883a 	add	r3,r3,r2
 8001bd0:	e0bff717 	ldw	r2,-36(fp)
 8001bd4:	10bfff64 	muli	r2,r2,-3
 8001bd8:	188f883a 	add	r7,r3,r2
 8001bdc:	e0bff717 	ldw	r2,-36(fp)
 8001be0:	1085883a 	add	r2,r2,r2
 8001be4:	1007883a 	mov	r3,r2
 8001be8:	e0bffb17 	ldw	r2,-20(fp)
 8001bec:	188b883a 	add	r5,r3,r2
 8001bf0:	e0fff817 	ldw	r3,-32(fp)
 8001bf4:	e0bffc17 	ldw	r2,-16(fp)
 8001bf8:	1885c83a 	sub	r2,r3,r2
 8001bfc:	1006d7fa 	srli	r3,r2,31
 8001c00:	1885883a 	add	r2,r3,r2
 8001c04:	1005d07a 	srai	r2,r2,1
 8001c08:	1007883a 	mov	r3,r2
 8001c0c:	e0bffa17 	ldw	r2,-24(fp)
 8001c10:	1887883a 	add	r3,r3,r2
 8001c14:	e0bffc17 	ldw	r2,-16(fp)
 8001c18:	1887883a 	add	r3,r3,r2
 8001c1c:	e0bff717 	ldw	r2,-36(fp)
 8001c20:	10bfff64 	muli	r2,r2,-3
 8001c24:	188d883a 	add	r6,r3,r2
 8001c28:	e0fff917 	ldw	r3,-28(fp)
 8001c2c:	e0bffb17 	ldw	r2,-20(fp)
 8001c30:	1887883a 	add	r3,r3,r2
 8001c34:	e13ff717 	ldw	r4,-36(fp)
 8001c38:	0005883a 	mov	r2,zero
 8001c3c:	1105c83a 	sub	r2,r2,r4
 8001c40:	1085883a 	add	r2,r2,r2
 8001c44:	1887883a 	add	r3,r3,r2
 8001c48:	00800044 	movi	r2,1
 8001c4c:	d8800015 	stw	r2,0(sp)
 8001c50:	3809883a 	mov	r4,r7
 8001c54:	180f883a 	mov	r7,r3
 8001c58:	800135c0 	call	800135c <DrawVlineWeighted>
	DrawVlineWeighted(b_x2+((x_s-line_weight)/2)+border*3, b_y2+border*2, b_x2+((x_s-line_weight)/2)+line_weight+border*3, y_s+b_y2-border*2, WHITE);
 8001c5c:	e0fff817 	ldw	r3,-32(fp)
 8001c60:	e0bffc17 	ldw	r2,-16(fp)
 8001c64:	1885c83a 	sub	r2,r3,r2
 8001c68:	1006d7fa 	srli	r3,r2,31
 8001c6c:	1885883a 	add	r2,r3,r2
 8001c70:	1005d07a 	srai	r2,r2,1
 8001c74:	1007883a 	mov	r3,r2
 8001c78:	e0bffa17 	ldw	r2,-24(fp)
 8001c7c:	1889883a 	add	r4,r3,r2
 8001c80:	e0fff717 	ldw	r3,-36(fp)
 8001c84:	1805883a 	mov	r2,r3
 8001c88:	1085883a 	add	r2,r2,r2
 8001c8c:	10c5883a 	add	r2,r2,r3
 8001c90:	208f883a 	add	r7,r4,r2
 8001c94:	e0bff717 	ldw	r2,-36(fp)
 8001c98:	1085883a 	add	r2,r2,r2
 8001c9c:	1007883a 	mov	r3,r2
 8001ca0:	e0bffb17 	ldw	r2,-20(fp)
 8001ca4:	188b883a 	add	r5,r3,r2
 8001ca8:	e0fff817 	ldw	r3,-32(fp)
 8001cac:	e0bffc17 	ldw	r2,-16(fp)
 8001cb0:	1885c83a 	sub	r2,r3,r2
 8001cb4:	1006d7fa 	srli	r3,r2,31
 8001cb8:	1885883a 	add	r2,r3,r2
 8001cbc:	1005d07a 	srai	r2,r2,1
 8001cc0:	1007883a 	mov	r3,r2
 8001cc4:	e0bffa17 	ldw	r2,-24(fp)
 8001cc8:	1887883a 	add	r3,r3,r2
 8001ccc:	e0bffc17 	ldw	r2,-16(fp)
 8001cd0:	1889883a 	add	r4,r3,r2
 8001cd4:	e0fff717 	ldw	r3,-36(fp)
 8001cd8:	1805883a 	mov	r2,r3
 8001cdc:	1085883a 	add	r2,r2,r2
 8001ce0:	10c5883a 	add	r2,r2,r3
 8001ce4:	208d883a 	add	r6,r4,r2
 8001ce8:	e0fff917 	ldw	r3,-28(fp)
 8001cec:	e0bffb17 	ldw	r2,-20(fp)
 8001cf0:	1887883a 	add	r3,r3,r2
 8001cf4:	e13ff717 	ldw	r4,-36(fp)
 8001cf8:	0005883a 	mov	r2,zero
 8001cfc:	1105c83a 	sub	r2,r2,r4
 8001d00:	1085883a 	add	r2,r2,r2
 8001d04:	1887883a 	add	r3,r3,r2
 8001d08:	00800044 	movi	r2,1
 8001d0c:	d8800015 	stw	r2,0(sp)
 8001d10:	3809883a 	mov	r4,r7
 8001d14:	180f883a 	mov	r7,r3
 8001d18:	800135c0 	call	800135c <DrawVlineWeighted>

	write(b_x2+5.5*border, b_y2+y_s+border*3, "GPS", 16, WHITE, BLACK);
 8001d1c:	e13ffa17 	ldw	r4,-24(fp)
 8001d20:	80039600 	call	8003960 <__floatsidf>
 8001d24:	1021883a 	mov	r16,r2
 8001d28:	1823883a 	mov	r17,r3
 8001d2c:	e13ff717 	ldw	r4,-36(fp)
 8001d30:	80039600 	call	8003960 <__floatsidf>
 8001d34:	100b883a 	mov	r5,r2
 8001d38:	180d883a 	mov	r6,r3
 8001d3c:	2809883a 	mov	r4,r5
 8001d40:	300b883a 	mov	r5,r6
 8001d44:	000d883a 	mov	r6,zero
 8001d48:	01d005b4 	movhi	r7,16406
 8001d4c:	80031b40 	call	80031b4 <__muldf3>
 8001d50:	1009883a 	mov	r4,r2
 8001d54:	180b883a 	mov	r5,r3
 8001d58:	2005883a 	mov	r2,r4
 8001d5c:	2807883a 	mov	r3,r5
 8001d60:	8009883a 	mov	r4,r16
 8001d64:	880b883a 	mov	r5,r17
 8001d68:	100d883a 	mov	r6,r2
 8001d6c:	180f883a 	mov	r7,r3
 8001d70:	800204c0 	call	800204c <__adddf3>
 8001d74:	1009883a 	mov	r4,r2
 8001d78:	180b883a 	mov	r5,r3
 8001d7c:	2005883a 	mov	r2,r4
 8001d80:	2807883a 	mov	r3,r5
 8001d84:	1009883a 	mov	r4,r2
 8001d88:	180b883a 	mov	r5,r3
 8001d8c:	80038d80 	call	80038d8 <__fixdfsi>
 8001d90:	100b883a 	mov	r5,r2
 8001d94:	e0fffb17 	ldw	r3,-20(fp)
 8001d98:	e0bff917 	ldw	r2,-28(fp)
 8001d9c:	1889883a 	add	r4,r3,r2
 8001da0:	e0fff717 	ldw	r3,-36(fp)
 8001da4:	1805883a 	mov	r2,r3
 8001da8:	1085883a 	add	r2,r2,r2
 8001dac:	10c5883a 	add	r2,r2,r3
 8001db0:	2087883a 	add	r3,r4,r2
 8001db4:	00800044 	movi	r2,1
 8001db8:	d8800015 	stw	r2,0(sp)
 8001dbc:	d8000115 	stw	zero,4(sp)
 8001dc0:	2809883a 	mov	r4,r5
 8001dc4:	180b883a 	mov	r5,r3
 8001dc8:	018200b4 	movhi	r6,2050
 8001dcc:	31851d04 	addi	r6,r6,5236
 8001dd0:	01c00404 	movi	r7,16
 8001dd4:	80016340 	call	8001634 <write>
}
 8001dd8:	e6fffe04 	addi	sp,fp,-8
 8001ddc:	dfc00317 	ldw	ra,12(sp)
 8001de0:	df000217 	ldw	fp,8(sp)
 8001de4:	dc400117 	ldw	r17,4(sp)
 8001de8:	dc000017 	ldw	r16,0(sp)
 8001dec:	dec00404 	addi	sp,sp,16
 8001df0:	f800283a 	ret

08001df4 <touchBox>:

int touchBox(Point p, int size, int x, int y){
 8001df4:	defffb04 	addi	sp,sp,-20
 8001df8:	df000415 	stw	fp,16(sp)
 8001dfc:	df000404 	addi	fp,sp,16
 8001e00:	e13ffc15 	stw	r4,-16(fp)
 8001e04:	e17ffd15 	stw	r5,-12(fp)
 8001e08:	e1bffe15 	stw	r6,-8(fp)
 8001e0c:	e1ffff15 	stw	r7,-4(fp)
	if (p.x > x && p.x < x+size && p.y > y && p.y < y+size)
 8001e10:	e0bffc17 	ldw	r2,-16(fp)
 8001e14:	e0ffff17 	ldw	r3,-4(fp)
 8001e18:	18800f0e 	bge	r3,r2,8001e58 <touchBox+0x64>
 8001e1c:	e0fffc17 	ldw	r3,-16(fp)
 8001e20:	e13fff17 	ldw	r4,-4(fp)
 8001e24:	e0bffe17 	ldw	r2,-8(fp)
 8001e28:	2085883a 	add	r2,r4,r2
 8001e2c:	18800a0e 	bge	r3,r2,8001e58 <touchBox+0x64>
 8001e30:	e0bffd17 	ldw	r2,-12(fp)
 8001e34:	e0c00117 	ldw	r3,4(fp)
 8001e38:	1880070e 	bge	r3,r2,8001e58 <touchBox+0x64>
 8001e3c:	e0fffd17 	ldw	r3,-12(fp)
 8001e40:	e1000117 	ldw	r4,4(fp)
 8001e44:	e0bffe17 	ldw	r2,-8(fp)
 8001e48:	2085883a 	add	r2,r4,r2
 8001e4c:	1880020e 	bge	r3,r2,8001e58 <touchBox+0x64>
		return 1;
 8001e50:	00800044 	movi	r2,1
 8001e54:	00000106 	br	8001e5c <touchBox+0x68>
	else
		return 0;
 8001e58:	0005883a 	mov	r2,zero
}
 8001e5c:	e037883a 	mov	sp,fp
 8001e60:	df000017 	ldw	fp,0(sp)
 8001e64:	dec00104 	addi	sp,sp,4
 8001e68:	f800283a 	ret

08001e6c <getGPSmessage>:

char* getGPSmessage(Coord c){
 8001e6c:	defffc04 	addi	sp,sp,-16
 8001e70:	dfc00315 	stw	ra,12(sp)
 8001e74:	df000215 	stw	fp,8(sp)
 8001e78:	df000204 	addi	fp,sp,8
 8001e7c:	e13ffe15 	stw	r4,-8(fp)
 8001e80:	e17fff15 	stw	r5,-4(fp)
	return concat("Your dependent is safe. Their location is  Latitude: ", c.lat, ", Longitude: ", c.lng);
 8001e84:	e0fffe17 	ldw	r3,-8(fp)
 8001e88:	e0bfff17 	ldw	r2,-4(fp)
 8001e8c:	010200b4 	movhi	r4,2050
 8001e90:	21051e04 	addi	r4,r4,5240
 8001e94:	180b883a 	mov	r5,r3
 8001e98:	018200b4 	movhi	r6,2050
 8001e9c:	31852c04 	addi	r6,r6,5296
 8001ea0:	100f883a 	mov	r7,r2
 8001ea4:	8000f700 	call	8000f70 <concat>
}
 8001ea8:	e037883a 	mov	sp,fp
 8001eac:	dfc00117 	ldw	ra,4(sp)
 8001eb0:	df000017 	ldw	fp,0(sp)
 8001eb4:	dec00204 	addi	sp,sp,8
 8001eb8:	f800283a 	ret

08001ebc <getLostmessage>:

char* getLostmessage(Coord c){
 8001ebc:	defffc04 	addi	sp,sp,-16
 8001ec0:	dfc00315 	stw	ra,12(sp)
 8001ec4:	df000215 	stw	fp,8(sp)
 8001ec8:	df000204 	addi	fp,sp,8
 8001ecc:	e13ffe15 	stw	r4,-8(fp)
 8001ed0:	e17fff15 	stw	r5,-4(fp)
	return concat("Your dependent failed to respond. Their location is  Latitude: ", c.lat, ", Longitude: ", c.lng);
 8001ed4:	e0fffe17 	ldw	r3,-8(fp)
 8001ed8:	e0bfff17 	ldw	r2,-4(fp)
 8001edc:	010200b4 	movhi	r4,2050
 8001ee0:	21053004 	addi	r4,r4,5312
 8001ee4:	180b883a 	mov	r5,r3
 8001ee8:	018200b4 	movhi	r6,2050
 8001eec:	31852c04 	addi	r6,r6,5296
 8001ef0:	100f883a 	mov	r7,r2
 8001ef4:	8000f700 	call	8000f70 <concat>
}
 8001ef8:	e037883a 	mov	sp,fp
 8001efc:	dfc00117 	ldw	ra,4(sp)
 8001f00:	df000017 	ldw	fp,0(sp)
 8001f04:	dec00204 	addi	sp,sp,8
 8001f08:	f800283a 	ret

08001f0c <main>:

int main()
{
 8001f0c:	defff704 	addi	sp,sp,-36
 8001f10:	dfc00815 	stw	ra,32(sp)
 8001f14:	df000715 	stw	fp,28(sp)
 8001f18:	df000704 	addi	fp,sp,28

	initRS232Touch();
 8001f1c:	80005340 	call	8000534 <initRS232Touch>
	initTouchScreen();
 8001f20:	80006000 	call	8000600 <initTouchScreen>

	//initialize wifi
	Init_RS232WIFI();
 8001f24:	8000a840 	call	8000a84 <Init_RS232WIFI>
	putString(initialize);
 8001f28:	010200b4 	movhi	r4,2050
 8001f2c:	21062a04 	addi	r4,r4,6312
 8001f30:	8000b880 	call	8000b88 <putString>

	initRS232GPS();
 8001f34:	8000c540 	call	8000c54 <initRS232GPS>

	clearScreen();
 8001f38:	80015f80 	call	80015f8 <clearScreen>

	drawBox1(GREEN);
 8001f3c:	01000304 	movi	r4,12
 8001f40:	80016e00 	call	80016e0 <drawBox1>
	drawBox2(BLUE);
 8001f44:	01000104 	movi	r4,4
 8001f48:	80019c40 	call	80019c4 <drawBox2>

	while(1){
		drawBox1(RED);
 8001f4c:	01000084 	movi	r4,2
 8001f50:	80016e00 	call	80016e0 <drawBox1>
		Point p = getPressTime(100);
 8001f54:	01001904 	movi	r4,100
 8001f58:	80009480 	call	8000948 <getPressTime>
 8001f5c:	1009883a 	mov	r4,r2
 8001f60:	180b883a 	mov	r5,r3
 8001f64:	e13ffa15 	stw	r4,-24(fp)
 8001f68:	e17ffb15 	stw	r5,-20(fp)
		Coord c = getGPSdata();
 8001f6c:	8000d200 	call	8000d20 <getGPSdata>
 8001f70:	1009883a 	mov	r4,r2
 8001f74:	180b883a 	mov	r5,r3
 8001f78:	e13ffc15 	stw	r4,-16(fp)
 8001f7c:	e17ffd15 	stw	r5,-12(fp)
		if (touchBox(p, 150, 167, 100)){
 8001f80:	00801904 	movi	r2,100
 8001f84:	d8800015 	stw	r2,0(sp)
 8001f88:	e13ffa17 	ldw	r4,-24(fp)
 8001f8c:	e17ffb17 	ldw	r5,-20(fp)
 8001f90:	01802584 	movi	r6,150
 8001f94:	01c029c4 	movi	r7,167
 8001f98:	8001df40 	call	8001df4 <touchBox>
 8001f9c:	10000826 	beq	r2,zero,8001fc0 <main+0xb4>
			drawBox1(GREEN);
 8001fa0:	01000304 	movi	r4,12
 8001fa4:	80016e00 	call	80016e0 <drawBox1>
			message(safeMessage);
 8001fa8:	010200b4 	movhi	r4,2050
 8001fac:	21063204 	addi	r4,r4,6344
 8001fb0:	8000c100 	call	8000c10 <message>
			waitFor(15);
 8001fb4:	010003c4 	movi	r4,15
 8001fb8:	80015a00 	call	80015a0 <waitFor>
 8001fbc:	00002206 	br	8002048 <main+0x13c>
		}
		else if (touchBox(p, 150, 483, 100)){
 8001fc0:	00801904 	movi	r2,100
 8001fc4:	d8800015 	stw	r2,0(sp)
 8001fc8:	e13ffa17 	ldw	r4,-24(fp)
 8001fcc:	e17ffb17 	ldw	r5,-20(fp)
 8001fd0:	01802584 	movi	r6,150
 8001fd4:	01c078c4 	movi	r7,483
 8001fd8:	8001df40 	call	8001df4 <touchBox>
 8001fdc:	10000a26 	beq	r2,zero,8002008 <main+0xfc>
			drawBox1(GREEN);
 8001fe0:	01000304 	movi	r4,12
 8001fe4:	80016e00 	call	80016e0 <drawBox1>
			message(getGPSmessage(c));
 8001fe8:	e13ffc17 	ldw	r4,-16(fp)
 8001fec:	e17ffd17 	ldw	r5,-12(fp)
 8001ff0:	8001e6c0 	call	8001e6c <getGPSmessage>
 8001ff4:	1009883a 	mov	r4,r2
 8001ff8:	8000c100 	call	8000c10 <message>
			waitFor(15);
 8001ffc:	010003c4 	movi	r4,15
 8002000:	80015a00 	call	80015a0 <waitFor>
 8002004:	00001006 	br	8002048 <main+0x13c>
		}
		else if (p.x == -1 || p.y == -1){
 8002008:	e0bffa17 	ldw	r2,-24(fp)
 800200c:	10bfffe0 	cmpeqi	r2,r2,-1
 8002010:	1000031e 	bne	r2,zero,8002020 <main+0x114>
 8002014:	e0bffb17 	ldw	r2,-20(fp)
 8002018:	10bfffd8 	cmpnei	r2,r2,-1
 800201c:	10000a1e 	bne	r2,zero,8002048 <main+0x13c>
			Coord s = getGPSdata();
 8002020:	8000d200 	call	8000d20 <getGPSdata>
 8002024:	1009883a 	mov	r4,r2
 8002028:	180b883a 	mov	r5,r3
 800202c:	e13ffe15 	stw	r4,-8(fp)
 8002030:	e17fff15 	stw	r5,-4(fp)
			message(getLostmessage(s));
 8002034:	e13ffe17 	ldw	r4,-8(fp)
 8002038:	e17fff17 	ldw	r5,-4(fp)
 800203c:	8001ebc0 	call	8001ebc <getLostmessage>
 8002040:	1009883a 	mov	r4,r2
 8002044:	8000c100 	call	8000c10 <message>
		}
	}
 8002048:	003fc006 	br	8001f4c <__alt_data_end+0xfc001f4c>

0800204c <__adddf3>:
 800204c:	02000434 	movhi	r8,16
 8002050:	423fffc4 	addi	r8,r8,-1
 8002054:	defffb04 	addi	sp,sp,-20
 8002058:	2a12703a 	and	r9,r5,r8
 800205c:	2806d7fa 	srli	r3,r5,31
 8002060:	3a10703a 	and	r8,r7,r8
 8002064:	3804d53a 	srli	r2,r7,20
 8002068:	3014d77a 	srli	r10,r6,29
 800206c:	dc000015 	stw	r16,0(sp)
 8002070:	481290fa 	slli	r9,r9,3
 8002074:	2820d53a 	srli	r16,r5,20
 8002078:	401090fa 	slli	r8,r8,3
 800207c:	200ad77a 	srli	r5,r4,29
 8002080:	380ed7fa 	srli	r7,r7,31
 8002084:	dc800215 	stw	r18,8(sp)
 8002088:	dc400115 	stw	r17,4(sp)
 800208c:	dfc00415 	stw	ra,16(sp)
 8002090:	dcc00315 	stw	r19,12(sp)
 8002094:	1c803fcc 	andi	r18,r3,255
 8002098:	8401ffcc 	andi	r16,r16,2047
 800209c:	494ab03a 	or	r5,r9,r5
 80020a0:	202290fa 	slli	r17,r4,3
 80020a4:	1081ffcc 	andi	r2,r2,2047
 80020a8:	4290b03a 	or	r8,r8,r10
 80020ac:	300c90fa 	slli	r6,r6,3
 80020b0:	91c07026 	beq	r18,r7,8002274 <__adddf3+0x228>
 80020b4:	8087c83a 	sub	r3,r16,r2
 80020b8:	00c0b30e 	bge	zero,r3,8002388 <__adddf3+0x33c>
 80020bc:	10002a1e 	bne	r2,zero,8002168 <__adddf3+0x11c>
 80020c0:	4184b03a 	or	r2,r8,r6
 80020c4:	1000991e 	bne	r2,zero,800232c <__adddf3+0x2e0>
 80020c8:	888001cc 	andi	r2,r17,7
 80020cc:	10005b26 	beq	r2,zero,800223c <__adddf3+0x1f0>
 80020d0:	88c003cc 	andi	r3,r17,15
 80020d4:	00800104 	movi	r2,4
 80020d8:	18805826 	beq	r3,r2,800223c <__adddf3+0x1f0>
 80020dc:	89800104 	addi	r6,r17,4
 80020e0:	3463803a 	cmpltu	r17,r6,r17
 80020e4:	2c4b883a 	add	r5,r5,r17
 80020e8:	2880202c 	andhi	r2,r5,128
 80020ec:	9007883a 	mov	r3,r18
 80020f0:	3023883a 	mov	r17,r6
 80020f4:	10005426 	beq	r2,zero,8002248 <__adddf3+0x1fc>
 80020f8:	84000044 	addi	r16,r16,1
 80020fc:	0081ffc4 	movi	r2,2047
 8002100:	8080c126 	beq	r16,r2,8002408 <__adddf3+0x3bc>
 8002104:	013fe034 	movhi	r4,65408
 8002108:	213fffc4 	addi	r4,r4,-1
 800210c:	290a703a 	and	r5,r5,r4
 8002110:	2804977a 	slli	r2,r5,29
 8002114:	280a927a 	slli	r5,r5,9
 8002118:	8822d0fa 	srli	r17,r17,3
 800211c:	8401ffcc 	andi	r16,r16,2047
 8002120:	2808d33a 	srli	r4,r5,12
 8002124:	1444b03a 	or	r2,r2,r17
 8002128:	8401ffcc 	andi	r16,r16,2047
 800212c:	800a953a 	slli	r5,r16,20
 8002130:	18c03fcc 	andi	r3,r3,255
 8002134:	04000434 	movhi	r16,16
 8002138:	180697fa 	slli	r3,r3,31
 800213c:	843fffc4 	addi	r16,r16,-1
 8002140:	2420703a 	and	r16,r4,r16
 8002144:	8160b03a 	or	r16,r16,r5
 8002148:	80c6b03a 	or	r3,r16,r3
 800214c:	dfc00417 	ldw	ra,16(sp)
 8002150:	dcc00317 	ldw	r19,12(sp)
 8002154:	dc800217 	ldw	r18,8(sp)
 8002158:	dc400117 	ldw	r17,4(sp)
 800215c:	dc000017 	ldw	r16,0(sp)
 8002160:	dec00504 	addi	sp,sp,20
 8002164:	f800283a 	ret
 8002168:	0081ffc4 	movi	r2,2047
 800216c:	80bfd626 	beq	r16,r2,80020c8 <__alt_data_end+0xfc0020c8>
 8002170:	42002034 	orhi	r8,r8,128
 8002174:	00800e04 	movi	r2,56
 8002178:	10c0a616 	blt	r2,r3,8002414 <__adddf3+0x3c8>
 800217c:	008007c4 	movi	r2,31
 8002180:	10c0c916 	blt	r2,r3,80024a8 <__adddf3+0x45c>
 8002184:	00800804 	movi	r2,32
 8002188:	10c5c83a 	sub	r2,r2,r3
 800218c:	408e983a 	sll	r7,r8,r2
 8002190:	30c8d83a 	srl	r4,r6,r3
 8002194:	3084983a 	sll	r2,r6,r2
 8002198:	40c6d83a 	srl	r3,r8,r3
 800219c:	390cb03a 	or	r6,r7,r4
 80021a0:	1004c03a 	cmpne	r2,r2,zero
 80021a4:	308cb03a 	or	r6,r6,r2
 80021a8:	898dc83a 	sub	r6,r17,r6
 80021ac:	89a3803a 	cmpltu	r17,r17,r6
 80021b0:	28cbc83a 	sub	r5,r5,r3
 80021b4:	2c4bc83a 	sub	r5,r5,r17
 80021b8:	3023883a 	mov	r17,r6
 80021bc:	2880202c 	andhi	r2,r5,128
 80021c0:	10006d26 	beq	r2,zero,8002378 <__adddf3+0x32c>
 80021c4:	04c02034 	movhi	r19,128
 80021c8:	9cffffc4 	addi	r19,r19,-1
 80021cc:	2ce6703a 	and	r19,r5,r19
 80021d0:	98007e26 	beq	r19,zero,80023cc <__adddf3+0x380>
 80021d4:	9809883a 	mov	r4,r19
 80021d8:	8003a300 	call	8003a30 <__clzsi2>
 80021dc:	10fffe04 	addi	r3,r2,-8
 80021e0:	010007c4 	movi	r4,31
 80021e4:	20c07f16 	blt	r4,r3,80023e4 <__adddf3+0x398>
 80021e8:	01400a04 	movi	r5,40
 80021ec:	2885c83a 	sub	r2,r5,r2
 80021f0:	888ad83a 	srl	r5,r17,r2
 80021f4:	98e6983a 	sll	r19,r19,r3
 80021f8:	88e2983a 	sll	r17,r17,r3
 80021fc:	2ce6b03a 	or	r19,r5,r19
 8002200:	1c007c16 	blt	r3,r16,80023f4 <__adddf3+0x3a8>
 8002204:	1c21c83a 	sub	r16,r3,r16
 8002208:	81400044 	addi	r5,r16,1
 800220c:	00c007c4 	movi	r3,31
 8002210:	19409816 	blt	r3,r5,8002474 <__adddf3+0x428>
 8002214:	1c21c83a 	sub	r16,r3,r16
 8002218:	8c08983a 	sll	r4,r17,r16
 800221c:	8946d83a 	srl	r3,r17,r5
 8002220:	9c20983a 	sll	r16,r19,r16
 8002224:	2008c03a 	cmpne	r4,r4,zero
 8002228:	994ad83a 	srl	r5,r19,r5
 800222c:	1c06b03a 	or	r3,r3,r16
 8002230:	1922b03a 	or	r17,r3,r4
 8002234:	0021883a 	mov	r16,zero
 8002238:	003fa306 	br	80020c8 <__alt_data_end+0xfc0020c8>
 800223c:	2880202c 	andhi	r2,r5,128
 8002240:	9007883a 	mov	r3,r18
 8002244:	103fac1e 	bne	r2,zero,80020f8 <__alt_data_end+0xfc0020f8>
 8002248:	2804977a 	slli	r2,r5,29
 800224c:	8822d0fa 	srli	r17,r17,3
 8002250:	0101ffc4 	movi	r4,2047
 8002254:	280ad0fa 	srli	r5,r5,3
 8002258:	1444b03a 	or	r2,r2,r17
 800225c:	81002c26 	beq	r16,r4,8002310 <__adddf3+0x2c4>
 8002260:	8120703a 	and	r16,r16,r4
 8002264:	01000434 	movhi	r4,16
 8002268:	213fffc4 	addi	r4,r4,-1
 800226c:	2908703a 	and	r4,r5,r4
 8002270:	003fad06 	br	8002128 <__alt_data_end+0xfc002128>
 8002274:	8089c83a 	sub	r4,r16,r2
 8002278:	01006a0e 	bge	zero,r4,8002424 <__adddf3+0x3d8>
 800227c:	10003326 	beq	r2,zero,800234c <__adddf3+0x300>
 8002280:	0081ffc4 	movi	r2,2047
 8002284:	80bf9026 	beq	r16,r2,80020c8 <__alt_data_end+0xfc0020c8>
 8002288:	42002034 	orhi	r8,r8,128
 800228c:	00800e04 	movi	r2,56
 8002290:	1100b116 	blt	r2,r4,8002558 <__adddf3+0x50c>
 8002294:	008007c4 	movi	r2,31
 8002298:	1100e216 	blt	r2,r4,8002624 <__adddf3+0x5d8>
 800229c:	00800804 	movi	r2,32
 80022a0:	1105c83a 	sub	r2,r2,r4
 80022a4:	4092983a 	sll	r9,r8,r2
 80022a8:	310ed83a 	srl	r7,r6,r4
 80022ac:	3084983a 	sll	r2,r6,r2
 80022b0:	4110d83a 	srl	r8,r8,r4
 80022b4:	49ccb03a 	or	r6,r9,r7
 80022b8:	1004c03a 	cmpne	r2,r2,zero
 80022bc:	308cb03a 	or	r6,r6,r2
 80022c0:	344d883a 	add	r6,r6,r17
 80022c4:	3463803a 	cmpltu	r17,r6,r17
 80022c8:	414b883a 	add	r5,r8,r5
 80022cc:	2c4b883a 	add	r5,r5,r17
 80022d0:	3023883a 	mov	r17,r6
 80022d4:	2880202c 	andhi	r2,r5,128
 80022d8:	10002726 	beq	r2,zero,8002378 <__adddf3+0x32c>
 80022dc:	84000044 	addi	r16,r16,1
 80022e0:	0081ffc4 	movi	r2,2047
 80022e4:	8080ae26 	beq	r16,r2,80025a0 <__adddf3+0x554>
 80022e8:	00bfe034 	movhi	r2,65408
 80022ec:	10bfffc4 	addi	r2,r2,-1
 80022f0:	288a703a 	and	r5,r5,r2
 80022f4:	880cd07a 	srli	r6,r17,1
 80022f8:	280897fa 	slli	r4,r5,31
 80022fc:	88c0004c 	andi	r3,r17,1
 8002300:	30e2b03a 	or	r17,r6,r3
 8002304:	280ad07a 	srli	r5,r5,1
 8002308:	8922b03a 	or	r17,r17,r4
 800230c:	003f6e06 	br	80020c8 <__alt_data_end+0xfc0020c8>
 8002310:	1148b03a 	or	r4,r2,r5
 8002314:	20003c26 	beq	r4,zero,8002408 <__adddf3+0x3bc>
 8002318:	29000234 	orhi	r4,r5,8
 800231c:	01400434 	movhi	r5,16
 8002320:	297fffc4 	addi	r5,r5,-1
 8002324:	2148703a 	and	r4,r4,r5
 8002328:	003f7f06 	br	8002128 <__alt_data_end+0xfc002128>
 800232c:	18ffffc4 	addi	r3,r3,-1
 8002330:	18004d1e 	bne	r3,zero,8002468 <__adddf3+0x41c>
 8002334:	898dc83a 	sub	r6,r17,r6
 8002338:	89a3803a 	cmpltu	r17,r17,r6
 800233c:	2a0bc83a 	sub	r5,r5,r8
 8002340:	2c4bc83a 	sub	r5,r5,r17
 8002344:	3023883a 	mov	r17,r6
 8002348:	003f9c06 	br	80021bc <__alt_data_end+0xfc0021bc>
 800234c:	4184b03a 	or	r2,r8,r6
 8002350:	103f5d26 	beq	r2,zero,80020c8 <__alt_data_end+0xfc0020c8>
 8002354:	213fffc4 	addi	r4,r4,-1
 8002358:	203fd926 	beq	r4,zero,80022c0 <__alt_data_end+0xfc0022c0>
 800235c:	0081ffc4 	movi	r2,2047
 8002360:	80bfca1e 	bne	r16,r2,800228c <__alt_data_end+0xfc00228c>
 8002364:	003f5806 	br	80020c8 <__alt_data_end+0xfc0020c8>
 8002368:	10c8b03a 	or	r4,r2,r3
 800236c:	20008b26 	beq	r4,zero,800259c <__adddf3+0x550>
 8002370:	100b883a 	mov	r5,r2
 8002374:	1823883a 	mov	r17,r3
 8002378:	888001cc 	andi	r2,r17,7
 800237c:	103f541e 	bne	r2,zero,80020d0 <__alt_data_end+0xfc0020d0>
 8002380:	9007883a 	mov	r3,r18
 8002384:	003fb006 	br	8002248 <__alt_data_end+0xfc002248>
 8002388:	1800531e 	bne	r3,zero,80024d8 <__adddf3+0x48c>
 800238c:	80800044 	addi	r2,r16,1
 8002390:	1081ffcc 	andi	r2,r2,2047
 8002394:	00c00044 	movi	r3,1
 8002398:	1880990e 	bge	r3,r2,8002600 <__adddf3+0x5b4>
 800239c:	8985c83a 	sub	r2,r17,r6
 80023a0:	8887803a 	cmpltu	r3,r17,r2
 80023a4:	2a27c83a 	sub	r19,r5,r8
 80023a8:	98e7c83a 	sub	r19,r19,r3
 80023ac:	98c0202c 	andhi	r3,r19,128
 80023b0:	18006226 	beq	r3,zero,800253c <__adddf3+0x4f0>
 80023b4:	3463c83a 	sub	r17,r6,r17
 80023b8:	4151c83a 	sub	r8,r8,r5
 80023bc:	344d803a 	cmpltu	r6,r6,r17
 80023c0:	41a7c83a 	sub	r19,r8,r6
 80023c4:	3825883a 	mov	r18,r7
 80023c8:	983f821e 	bne	r19,zero,80021d4 <__alt_data_end+0xfc0021d4>
 80023cc:	8809883a 	mov	r4,r17
 80023d0:	8003a300 	call	8003a30 <__clzsi2>
 80023d4:	10800804 	addi	r2,r2,32
 80023d8:	10fffe04 	addi	r3,r2,-8
 80023dc:	010007c4 	movi	r4,31
 80023e0:	20ff810e 	bge	r4,r3,80021e8 <__alt_data_end+0xfc0021e8>
 80023e4:	14fff604 	addi	r19,r2,-40
 80023e8:	8ce6983a 	sll	r19,r17,r19
 80023ec:	0023883a 	mov	r17,zero
 80023f0:	1c3f840e 	bge	r3,r16,8002204 <__alt_data_end+0xfc002204>
 80023f4:	017fe034 	movhi	r5,65408
 80023f8:	297fffc4 	addi	r5,r5,-1
 80023fc:	80e1c83a 	sub	r16,r16,r3
 8002400:	994a703a 	and	r5,r19,r5
 8002404:	003f3006 	br	80020c8 <__alt_data_end+0xfc0020c8>
 8002408:	0009883a 	mov	r4,zero
 800240c:	0005883a 	mov	r2,zero
 8002410:	003f4506 	br	8002128 <__alt_data_end+0xfc002128>
 8002414:	418cb03a 	or	r6,r8,r6
 8002418:	300cc03a 	cmpne	r6,r6,zero
 800241c:	0007883a 	mov	r3,zero
 8002420:	003f6106 	br	80021a8 <__alt_data_end+0xfc0021a8>
 8002424:	2000921e 	bne	r4,zero,8002670 <__adddf3+0x624>
 8002428:	80800044 	addi	r2,r16,1
 800242c:	11c1ffcc 	andi	r7,r2,2047
 8002430:	01000044 	movi	r4,1
 8002434:	21c0610e 	bge	r4,r7,80025bc <__adddf3+0x570>
 8002438:	0101ffc4 	movi	r4,2047
 800243c:	1100a326 	beq	r2,r4,80026cc <__adddf3+0x680>
 8002440:	344d883a 	add	r6,r6,r17
 8002444:	3463803a 	cmpltu	r17,r6,r17
 8002448:	414b883a 	add	r5,r8,r5
 800244c:	2c4b883a 	add	r5,r5,r17
 8002450:	282297fa 	slli	r17,r5,31
 8002454:	300cd07a 	srli	r6,r6,1
 8002458:	280ad07a 	srli	r5,r5,1
 800245c:	1021883a 	mov	r16,r2
 8002460:	89a2b03a 	or	r17,r17,r6
 8002464:	003f1806 	br	80020c8 <__alt_data_end+0xfc0020c8>
 8002468:	0081ffc4 	movi	r2,2047
 800246c:	80bf411e 	bne	r16,r2,8002174 <__alt_data_end+0xfc002174>
 8002470:	003f1506 	br	80020c8 <__alt_data_end+0xfc0020c8>
 8002474:	80bff844 	addi	r2,r16,-31
 8002478:	00c00804 	movi	r3,32
 800247c:	9884d83a 	srl	r2,r19,r2
 8002480:	28c04a26 	beq	r5,r3,80025ac <__adddf3+0x560>
 8002484:	00c00fc4 	movi	r3,63
 8002488:	1c21c83a 	sub	r16,r3,r16
 800248c:	9c26983a 	sll	r19,r19,r16
 8002490:	9c62b03a 	or	r17,r19,r17
 8002494:	8822c03a 	cmpne	r17,r17,zero
 8002498:	88a2b03a 	or	r17,r17,r2
 800249c:	000b883a 	mov	r5,zero
 80024a0:	0021883a 	mov	r16,zero
 80024a4:	003fb406 	br	8002378 <__alt_data_end+0xfc002378>
 80024a8:	18bff804 	addi	r2,r3,-32
 80024ac:	01000804 	movi	r4,32
 80024b0:	4084d83a 	srl	r2,r8,r2
 80024b4:	19003f26 	beq	r3,r4,80025b4 <__adddf3+0x568>
 80024b8:	01001004 	movi	r4,64
 80024bc:	20c7c83a 	sub	r3,r4,r3
 80024c0:	40d0983a 	sll	r8,r8,r3
 80024c4:	418cb03a 	or	r6,r8,r6
 80024c8:	300cc03a 	cmpne	r6,r6,zero
 80024cc:	308cb03a 	or	r6,r6,r2
 80024d0:	0007883a 	mov	r3,zero
 80024d4:	003f3406 	br	80021a8 <__alt_data_end+0xfc0021a8>
 80024d8:	80002326 	beq	r16,zero,8002568 <__adddf3+0x51c>
 80024dc:	0101ffc4 	movi	r4,2047
 80024e0:	11005e26 	beq	r2,r4,800265c <__adddf3+0x610>
 80024e4:	00c7c83a 	sub	r3,zero,r3
 80024e8:	29402034 	orhi	r5,r5,128
 80024ec:	01000e04 	movi	r4,56
 80024f0:	20c07216 	blt	r4,r3,80026bc <__adddf3+0x670>
 80024f4:	010007c4 	movi	r4,31
 80024f8:	20c0ce16 	blt	r4,r3,8002834 <__adddf3+0x7e8>
 80024fc:	01000804 	movi	r4,32
 8002500:	20c9c83a 	sub	r4,r4,r3
 8002504:	2914983a 	sll	r10,r5,r4
 8002508:	88d2d83a 	srl	r9,r17,r3
 800250c:	8908983a 	sll	r4,r17,r4
 8002510:	28c6d83a 	srl	r3,r5,r3
 8002514:	5262b03a 	or	r17,r10,r9
 8002518:	2008c03a 	cmpne	r4,r4,zero
 800251c:	8922b03a 	or	r17,r17,r4
 8002520:	3463c83a 	sub	r17,r6,r17
 8002524:	40c7c83a 	sub	r3,r8,r3
 8002528:	344d803a 	cmpltu	r6,r6,r17
 800252c:	198bc83a 	sub	r5,r3,r6
 8002530:	1021883a 	mov	r16,r2
 8002534:	3825883a 	mov	r18,r7
 8002538:	003f2006 	br	80021bc <__alt_data_end+0xfc0021bc>
 800253c:	9886b03a 	or	r3,r19,r2
 8002540:	1800141e 	bne	r3,zero,8002594 <__adddf3+0x548>
 8002544:	0007883a 	mov	r3,zero
 8002548:	000b883a 	mov	r5,zero
 800254c:	0023883a 	mov	r17,zero
 8002550:	0021883a 	mov	r16,zero
 8002554:	003f3c06 	br	8002248 <__alt_data_end+0xfc002248>
 8002558:	418cb03a 	or	r6,r8,r6
 800255c:	300cc03a 	cmpne	r6,r6,zero
 8002560:	0011883a 	mov	r8,zero
 8002564:	003f5606 	br	80022c0 <__alt_data_end+0xfc0022c0>
 8002568:	2c48b03a 	or	r4,r5,r17
 800256c:	20003b26 	beq	r4,zero,800265c <__adddf3+0x610>
 8002570:	00c6303a 	nor	r3,zero,r3
 8002574:	1800371e 	bne	r3,zero,8002654 <__adddf3+0x608>
 8002578:	3463c83a 	sub	r17,r6,r17
 800257c:	414bc83a 	sub	r5,r8,r5
 8002580:	344d803a 	cmpltu	r6,r6,r17
 8002584:	298bc83a 	sub	r5,r5,r6
 8002588:	1021883a 	mov	r16,r2
 800258c:	3825883a 	mov	r18,r7
 8002590:	003f0a06 	br	80021bc <__alt_data_end+0xfc0021bc>
 8002594:	1023883a 	mov	r17,r2
 8002598:	003f0d06 	br	80021d0 <__alt_data_end+0xfc0021d0>
 800259c:	0007883a 	mov	r3,zero
 80025a0:	000b883a 	mov	r5,zero
 80025a4:	0023883a 	mov	r17,zero
 80025a8:	003f2706 	br	8002248 <__alt_data_end+0xfc002248>
 80025ac:	0027883a 	mov	r19,zero
 80025b0:	003fb706 	br	8002490 <__alt_data_end+0xfc002490>
 80025b4:	0011883a 	mov	r8,zero
 80025b8:	003fc206 	br	80024c4 <__alt_data_end+0xfc0024c4>
 80025bc:	2c44b03a 	or	r2,r5,r17
 80025c0:	8000871e 	bne	r16,zero,80027e0 <__adddf3+0x794>
 80025c4:	1000b126 	beq	r2,zero,800288c <__adddf3+0x840>
 80025c8:	4184b03a 	or	r2,r8,r6
 80025cc:	103ebe26 	beq	r2,zero,80020c8 <__alt_data_end+0xfc0020c8>
 80025d0:	3445883a 	add	r2,r6,r17
 80025d4:	1463803a 	cmpltu	r17,r2,r17
 80025d8:	414b883a 	add	r5,r8,r5
 80025dc:	2c4b883a 	add	r5,r5,r17
 80025e0:	28c0202c 	andhi	r3,r5,128
 80025e4:	1023883a 	mov	r17,r2
 80025e8:	183f6326 	beq	r3,zero,8002378 <__alt_data_end+0xfc002378>
 80025ec:	00bfe034 	movhi	r2,65408
 80025f0:	10bfffc4 	addi	r2,r2,-1
 80025f4:	2021883a 	mov	r16,r4
 80025f8:	288a703a 	and	r5,r5,r2
 80025fc:	003eb206 	br	80020c8 <__alt_data_end+0xfc0020c8>
 8002600:	2c44b03a 	or	r2,r5,r17
 8002604:	8000251e 	bne	r16,zero,800269c <__adddf3+0x650>
 8002608:	10004b1e 	bne	r2,zero,8002738 <__adddf3+0x6ec>
 800260c:	4184b03a 	or	r2,r8,r6
 8002610:	103fe226 	beq	r2,zero,800259c <__alt_data_end+0xfc00259c>
 8002614:	400b883a 	mov	r5,r8
 8002618:	3023883a 	mov	r17,r6
 800261c:	3825883a 	mov	r18,r7
 8002620:	003ea906 	br	80020c8 <__alt_data_end+0xfc0020c8>
 8002624:	20bff804 	addi	r2,r4,-32
 8002628:	01c00804 	movi	r7,32
 800262c:	4084d83a 	srl	r2,r8,r2
 8002630:	21c07e26 	beq	r4,r7,800282c <__adddf3+0x7e0>
 8002634:	01c01004 	movi	r7,64
 8002638:	3909c83a 	sub	r4,r7,r4
 800263c:	4110983a 	sll	r8,r8,r4
 8002640:	418cb03a 	or	r6,r8,r6
 8002644:	300cc03a 	cmpne	r6,r6,zero
 8002648:	308cb03a 	or	r6,r6,r2
 800264c:	0011883a 	mov	r8,zero
 8002650:	003f1b06 	br	80022c0 <__alt_data_end+0xfc0022c0>
 8002654:	0101ffc4 	movi	r4,2047
 8002658:	113fa41e 	bne	r2,r4,80024ec <__alt_data_end+0xfc0024ec>
 800265c:	400b883a 	mov	r5,r8
 8002660:	3023883a 	mov	r17,r6
 8002664:	1021883a 	mov	r16,r2
 8002668:	3825883a 	mov	r18,r7
 800266c:	003e9606 	br	80020c8 <__alt_data_end+0xfc0020c8>
 8002670:	80001a1e 	bne	r16,zero,80026dc <__adddf3+0x690>
 8002674:	2c4eb03a 	or	r7,r5,r17
 8002678:	38005526 	beq	r7,zero,80027d0 <__adddf3+0x784>
 800267c:	0108303a 	nor	r4,zero,r4
 8002680:	2000511e 	bne	r4,zero,80027c8 <__adddf3+0x77c>
 8002684:	89a3883a 	add	r17,r17,r6
 8002688:	414b883a 	add	r5,r8,r5
 800268c:	898d803a 	cmpltu	r6,r17,r6
 8002690:	298b883a 	add	r5,r5,r6
 8002694:	1021883a 	mov	r16,r2
 8002698:	003f0e06 	br	80022d4 <__alt_data_end+0xfc0022d4>
 800269c:	1000341e 	bne	r2,zero,8002770 <__adddf3+0x724>
 80026a0:	4184b03a 	or	r2,r8,r6
 80026a4:	10006f26 	beq	r2,zero,8002864 <__adddf3+0x818>
 80026a8:	400b883a 	mov	r5,r8
 80026ac:	3023883a 	mov	r17,r6
 80026b0:	3825883a 	mov	r18,r7
 80026b4:	0401ffc4 	movi	r16,2047
 80026b8:	003e8306 	br	80020c8 <__alt_data_end+0xfc0020c8>
 80026bc:	2c62b03a 	or	r17,r5,r17
 80026c0:	8822c03a 	cmpne	r17,r17,zero
 80026c4:	0007883a 	mov	r3,zero
 80026c8:	003f9506 	br	8002520 <__alt_data_end+0xfc002520>
 80026cc:	1021883a 	mov	r16,r2
 80026d0:	000b883a 	mov	r5,zero
 80026d4:	0023883a 	mov	r17,zero
 80026d8:	003edb06 	br	8002248 <__alt_data_end+0xfc002248>
 80026dc:	01c1ffc4 	movi	r7,2047
 80026e0:	11c03b26 	beq	r2,r7,80027d0 <__adddf3+0x784>
 80026e4:	0109c83a 	sub	r4,zero,r4
 80026e8:	29402034 	orhi	r5,r5,128
 80026ec:	01c00e04 	movi	r7,56
 80026f0:	39006216 	blt	r7,r4,800287c <__adddf3+0x830>
 80026f4:	01c007c4 	movi	r7,31
 80026f8:	39006b16 	blt	r7,r4,80028a8 <__adddf3+0x85c>
 80026fc:	01c00804 	movi	r7,32
 8002700:	390fc83a 	sub	r7,r7,r4
 8002704:	29d4983a 	sll	r10,r5,r7
 8002708:	8912d83a 	srl	r9,r17,r4
 800270c:	89ce983a 	sll	r7,r17,r7
 8002710:	2908d83a 	srl	r4,r5,r4
 8002714:	5262b03a 	or	r17,r10,r9
 8002718:	380ac03a 	cmpne	r5,r7,zero
 800271c:	8962b03a 	or	r17,r17,r5
 8002720:	89a3883a 	add	r17,r17,r6
 8002724:	2211883a 	add	r8,r4,r8
 8002728:	898d803a 	cmpltu	r6,r17,r6
 800272c:	418b883a 	add	r5,r8,r6
 8002730:	1021883a 	mov	r16,r2
 8002734:	003ee706 	br	80022d4 <__alt_data_end+0xfc0022d4>
 8002738:	4184b03a 	or	r2,r8,r6
 800273c:	103e6226 	beq	r2,zero,80020c8 <__alt_data_end+0xfc0020c8>
 8002740:	8987c83a 	sub	r3,r17,r6
 8002744:	88c9803a 	cmpltu	r4,r17,r3
 8002748:	2a05c83a 	sub	r2,r5,r8
 800274c:	1105c83a 	sub	r2,r2,r4
 8002750:	1100202c 	andhi	r4,r2,128
 8002754:	203f0426 	beq	r4,zero,8002368 <__alt_data_end+0xfc002368>
 8002758:	3463c83a 	sub	r17,r6,r17
 800275c:	414bc83a 	sub	r5,r8,r5
 8002760:	344d803a 	cmpltu	r6,r6,r17
 8002764:	298bc83a 	sub	r5,r5,r6
 8002768:	3825883a 	mov	r18,r7
 800276c:	003e5606 	br	80020c8 <__alt_data_end+0xfc0020c8>
 8002770:	4184b03a 	or	r2,r8,r6
 8002774:	10002b26 	beq	r2,zero,8002824 <__adddf3+0x7d8>
 8002778:	2804d0fa 	srli	r2,r5,3
 800277c:	8822d0fa 	srli	r17,r17,3
 8002780:	280a977a 	slli	r5,r5,29
 8002784:	10c0022c 	andhi	r3,r2,8
 8002788:	2c62b03a 	or	r17,r5,r17
 800278c:	18000826 	beq	r3,zero,80027b0 <__adddf3+0x764>
 8002790:	4008d0fa 	srli	r4,r8,3
 8002794:	20c0022c 	andhi	r3,r4,8
 8002798:	1800051e 	bne	r3,zero,80027b0 <__adddf3+0x764>
 800279c:	300cd0fa 	srli	r6,r6,3
 80027a0:	4010977a 	slli	r8,r8,29
 80027a4:	2005883a 	mov	r2,r4
 80027a8:	3825883a 	mov	r18,r7
 80027ac:	41a2b03a 	or	r17,r8,r6
 80027b0:	880ad77a 	srli	r5,r17,29
 80027b4:	100490fa 	slli	r2,r2,3
 80027b8:	882290fa 	slli	r17,r17,3
 80027bc:	0401ffc4 	movi	r16,2047
 80027c0:	288ab03a 	or	r5,r5,r2
 80027c4:	003e4006 	br	80020c8 <__alt_data_end+0xfc0020c8>
 80027c8:	01c1ffc4 	movi	r7,2047
 80027cc:	11ffc71e 	bne	r2,r7,80026ec <__alt_data_end+0xfc0026ec>
 80027d0:	400b883a 	mov	r5,r8
 80027d4:	3023883a 	mov	r17,r6
 80027d8:	1021883a 	mov	r16,r2
 80027dc:	003e3a06 	br	80020c8 <__alt_data_end+0xfc0020c8>
 80027e0:	10002d26 	beq	r2,zero,8002898 <__adddf3+0x84c>
 80027e4:	4184b03a 	or	r2,r8,r6
 80027e8:	10000e26 	beq	r2,zero,8002824 <__adddf3+0x7d8>
 80027ec:	2804d0fa 	srli	r2,r5,3
 80027f0:	8822d0fa 	srli	r17,r17,3
 80027f4:	280a977a 	slli	r5,r5,29
 80027f8:	10c0022c 	andhi	r3,r2,8
 80027fc:	2c62b03a 	or	r17,r5,r17
 8002800:	183feb26 	beq	r3,zero,80027b0 <__alt_data_end+0xfc0027b0>
 8002804:	4008d0fa 	srli	r4,r8,3
 8002808:	20c0022c 	andhi	r3,r4,8
 800280c:	183fe81e 	bne	r3,zero,80027b0 <__alt_data_end+0xfc0027b0>
 8002810:	300cd0fa 	srli	r6,r6,3
 8002814:	4010977a 	slli	r8,r8,29
 8002818:	2005883a 	mov	r2,r4
 800281c:	41a2b03a 	or	r17,r8,r6
 8002820:	003fe306 	br	80027b0 <__alt_data_end+0xfc0027b0>
 8002824:	0401ffc4 	movi	r16,2047
 8002828:	003e2706 	br	80020c8 <__alt_data_end+0xfc0020c8>
 800282c:	0011883a 	mov	r8,zero
 8002830:	003f8306 	br	8002640 <__alt_data_end+0xfc002640>
 8002834:	193ff804 	addi	r4,r3,-32
 8002838:	02400804 	movi	r9,32
 800283c:	2908d83a 	srl	r4,r5,r4
 8002840:	1a402526 	beq	r3,r9,80028d8 <__adddf3+0x88c>
 8002844:	02401004 	movi	r9,64
 8002848:	48c7c83a 	sub	r3,r9,r3
 800284c:	28ca983a 	sll	r5,r5,r3
 8002850:	2c62b03a 	or	r17,r5,r17
 8002854:	8822c03a 	cmpne	r17,r17,zero
 8002858:	8922b03a 	or	r17,r17,r4
 800285c:	0007883a 	mov	r3,zero
 8002860:	003f2f06 	br	8002520 <__alt_data_end+0xfc002520>
 8002864:	01402034 	movhi	r5,128
 8002868:	0007883a 	mov	r3,zero
 800286c:	297fffc4 	addi	r5,r5,-1
 8002870:	047ffe04 	movi	r17,-8
 8002874:	0401ffc4 	movi	r16,2047
 8002878:	003e7306 	br	8002248 <__alt_data_end+0xfc002248>
 800287c:	2c62b03a 	or	r17,r5,r17
 8002880:	8822c03a 	cmpne	r17,r17,zero
 8002884:	0009883a 	mov	r4,zero
 8002888:	003fa506 	br	8002720 <__alt_data_end+0xfc002720>
 800288c:	400b883a 	mov	r5,r8
 8002890:	3023883a 	mov	r17,r6
 8002894:	003e0c06 	br	80020c8 <__alt_data_end+0xfc0020c8>
 8002898:	400b883a 	mov	r5,r8
 800289c:	3023883a 	mov	r17,r6
 80028a0:	0401ffc4 	movi	r16,2047
 80028a4:	003e0806 	br	80020c8 <__alt_data_end+0xfc0020c8>
 80028a8:	21fff804 	addi	r7,r4,-32
 80028ac:	02400804 	movi	r9,32
 80028b0:	29ced83a 	srl	r7,r5,r7
 80028b4:	22400a26 	beq	r4,r9,80028e0 <__adddf3+0x894>
 80028b8:	02401004 	movi	r9,64
 80028bc:	4909c83a 	sub	r4,r9,r4
 80028c0:	290a983a 	sll	r5,r5,r4
 80028c4:	2c62b03a 	or	r17,r5,r17
 80028c8:	8822c03a 	cmpne	r17,r17,zero
 80028cc:	89e2b03a 	or	r17,r17,r7
 80028d0:	0009883a 	mov	r4,zero
 80028d4:	003f9206 	br	8002720 <__alt_data_end+0xfc002720>
 80028d8:	000b883a 	mov	r5,zero
 80028dc:	003fdc06 	br	8002850 <__alt_data_end+0xfc002850>
 80028e0:	000b883a 	mov	r5,zero
 80028e4:	003ff706 	br	80028c4 <__alt_data_end+0xfc0028c4>

080028e8 <__divdf3>:
 80028e8:	defff204 	addi	sp,sp,-56
 80028ec:	dd000815 	stw	r20,32(sp)
 80028f0:	2828d53a 	srli	r20,r5,20
 80028f4:	dd800a15 	stw	r22,40(sp)
 80028f8:	282cd7fa 	srli	r22,r5,31
 80028fc:	dc000415 	stw	r16,16(sp)
 8002900:	04000434 	movhi	r16,16
 8002904:	df000c15 	stw	fp,48(sp)
 8002908:	dcc00715 	stw	r19,28(sp)
 800290c:	dc800615 	stw	r18,24(sp)
 8002910:	dc400515 	stw	r17,20(sp)
 8002914:	843fffc4 	addi	r16,r16,-1
 8002918:	dfc00d15 	stw	ra,52(sp)
 800291c:	ddc00b15 	stw	r23,44(sp)
 8002920:	dd400915 	stw	r21,36(sp)
 8002924:	a501ffcc 	andi	r20,r20,2047
 8002928:	2025883a 	mov	r18,r4
 800292c:	2027883a 	mov	r19,r4
 8002930:	2c22703a 	and	r17,r5,r16
 8002934:	b7003fcc 	andi	fp,r22,255
 8002938:	a0005e26 	beq	r20,zero,8002ab4 <__divdf3+0x1cc>
 800293c:	0081ffc4 	movi	r2,2047
 8002940:	a0803526 	beq	r20,r2,8002a18 <__divdf3+0x130>
 8002944:	8c000434 	orhi	r16,r17,16
 8002948:	2004d77a 	srli	r2,r4,29
 800294c:	802090fa 	slli	r16,r16,3
 8002950:	202690fa 	slli	r19,r4,3
 8002954:	a53f0044 	addi	r20,r20,-1023
 8002958:	80a2b03a 	or	r17,r16,r2
 800295c:	0025883a 	mov	r18,zero
 8002960:	0011883a 	mov	r8,zero
 8002964:	380ad53a 	srli	r5,r7,20
 8002968:	382ed7fa 	srli	r23,r7,31
 800296c:	04000434 	movhi	r16,16
 8002970:	843fffc4 	addi	r16,r16,-1
 8002974:	2941ffcc 	andi	r5,r5,2047
 8002978:	302b883a 	mov	r21,r6
 800297c:	3c20703a 	and	r16,r7,r16
 8002980:	ba403fcc 	andi	r9,r23,255
 8002984:	28006726 	beq	r5,zero,8002b24 <__divdf3+0x23c>
 8002988:	0081ffc4 	movi	r2,2047
 800298c:	28805f26 	beq	r5,r2,8002b0c <__divdf3+0x224>
 8002990:	84000434 	orhi	r16,r16,16
 8002994:	3004d77a 	srli	r2,r6,29
 8002998:	802090fa 	slli	r16,r16,3
 800299c:	302a90fa 	slli	r21,r6,3
 80029a0:	297f0044 	addi	r5,r5,-1023
 80029a4:	80a0b03a 	or	r16,r16,r2
 80029a8:	000f883a 	mov	r7,zero
 80029ac:	3c86b03a 	or	r3,r7,r18
 80029b0:	180690ba 	slli	r3,r3,2
 80029b4:	00820034 	movhi	r2,2048
 80029b8:	108a7604 	addi	r2,r2,10712
 80029bc:	1887883a 	add	r3,r3,r2
 80029c0:	18c00017 	ldw	r3,0(r3)
 80029c4:	b5c8f03a 	xor	r4,r22,r23
 80029c8:	200d883a 	mov	r6,r4
 80029cc:	24803fcc 	andi	r18,r4,255
 80029d0:	a169c83a 	sub	r20,r20,r5
 80029d4:	1800683a 	jmp	r3
 80029d8:	08002c20 	cmpeqi	zero,at,176
 80029dc:	08002a50 	cmplti	zero,at,169
 80029e0:	08002be4 	muli	zero,at,175
 80029e4:	08002a34 	orhi	zero,at,168
 80029e8:	08002be4 	muli	zero,at,175
 80029ec:	08002bb8 	rdprs	zero,at,174
 80029f0:	08002be4 	muli	zero,at,175
 80029f4:	08002a34 	orhi	zero,at,168
 80029f8:	08002a50 	cmplti	zero,at,169
 80029fc:	08002a50 	cmplti	zero,at,169
 8002a00:	08002bb8 	rdprs	zero,at,174
 8002a04:	08002a34 	orhi	zero,at,168
 8002a08:	08002a44 	addi	zero,at,169
 8002a0c:	08002a44 	addi	zero,at,169
 8002a10:	08002a44 	addi	zero,at,169
 8002a14:	08002bf4 	orhi	zero,at,175
 8002a18:	8904b03a 	or	r2,r17,r4
 8002a1c:	1000631e 	bne	r2,zero,8002bac <__divdf3+0x2c4>
 8002a20:	04800204 	movi	r18,8
 8002a24:	0023883a 	mov	r17,zero
 8002a28:	0027883a 	mov	r19,zero
 8002a2c:	02000084 	movi	r8,2
 8002a30:	003fcc06 	br	8002964 <__alt_data_end+0xfc002964>
 8002a34:	8023883a 	mov	r17,r16
 8002a38:	a827883a 	mov	r19,r21
 8002a3c:	4839883a 	mov	fp,r9
 8002a40:	3811883a 	mov	r8,r7
 8002a44:	00800084 	movi	r2,2
 8002a48:	40812a1e 	bne	r8,r2,8002ef4 <__divdf3+0x60c>
 8002a4c:	e025883a 	mov	r18,fp
 8002a50:	9180004c 	andi	r6,r18,1
 8002a54:	0101ffc4 	movi	r4,2047
 8002a58:	000b883a 	mov	r5,zero
 8002a5c:	0027883a 	mov	r19,zero
 8002a60:	2008953a 	slli	r4,r4,20
 8002a64:	30c03fcc 	andi	r3,r6,255
 8002a68:	04000434 	movhi	r16,16
 8002a6c:	180697fa 	slli	r3,r3,31
 8002a70:	843fffc4 	addi	r16,r16,-1
 8002a74:	2c20703a 	and	r16,r5,r16
 8002a78:	8120b03a 	or	r16,r16,r4
 8002a7c:	80c6b03a 	or	r3,r16,r3
 8002a80:	9805883a 	mov	r2,r19
 8002a84:	dfc00d17 	ldw	ra,52(sp)
 8002a88:	df000c17 	ldw	fp,48(sp)
 8002a8c:	ddc00b17 	ldw	r23,44(sp)
 8002a90:	dd800a17 	ldw	r22,40(sp)
 8002a94:	dd400917 	ldw	r21,36(sp)
 8002a98:	dd000817 	ldw	r20,32(sp)
 8002a9c:	dcc00717 	ldw	r19,28(sp)
 8002aa0:	dc800617 	ldw	r18,24(sp)
 8002aa4:	dc400517 	ldw	r17,20(sp)
 8002aa8:	dc000417 	ldw	r16,16(sp)
 8002aac:	dec00e04 	addi	sp,sp,56
 8002ab0:	f800283a 	ret
 8002ab4:	8904b03a 	or	r2,r17,r4
 8002ab8:	10003726 	beq	r2,zero,8002b98 <__divdf3+0x2b0>
 8002abc:	88011c26 	beq	r17,zero,8002f30 <__divdf3+0x648>
 8002ac0:	8809883a 	mov	r4,r17
 8002ac4:	d9800315 	stw	r6,12(sp)
 8002ac8:	d9c00115 	stw	r7,4(sp)
 8002acc:	8003a300 	call	8003a30 <__clzsi2>
 8002ad0:	d9800317 	ldw	r6,12(sp)
 8002ad4:	d9c00117 	ldw	r7,4(sp)
 8002ad8:	1007883a 	mov	r3,r2
 8002adc:	01000a04 	movi	r4,40
 8002ae0:	1cfffe04 	addi	r19,r3,-8
 8002ae4:	20c9c83a 	sub	r4,r4,r3
 8002ae8:	8cca983a 	sll	r5,r17,r19
 8002aec:	9108d83a 	srl	r4,r18,r4
 8002af0:	94e6983a 	sll	r19,r18,r19
 8002af4:	2162b03a 	or	r17,r4,r5
 8002af8:	053f0344 	movi	r20,-1011
 8002afc:	a0e9c83a 	sub	r20,r20,r3
 8002b00:	0025883a 	mov	r18,zero
 8002b04:	0011883a 	mov	r8,zero
 8002b08:	003f9606 	br	8002964 <__alt_data_end+0xfc002964>
 8002b0c:	8184b03a 	or	r2,r16,r6
 8002b10:	10001f1e 	bne	r2,zero,8002b90 <__divdf3+0x2a8>
 8002b14:	0021883a 	mov	r16,zero
 8002b18:	002b883a 	mov	r21,zero
 8002b1c:	01c00084 	movi	r7,2
 8002b20:	003fa206 	br	80029ac <__alt_data_end+0xfc0029ac>
 8002b24:	8184b03a 	or	r2,r16,r6
 8002b28:	10001526 	beq	r2,zero,8002b80 <__divdf3+0x298>
 8002b2c:	80010c26 	beq	r16,zero,8002f60 <__divdf3+0x678>
 8002b30:	8009883a 	mov	r4,r16
 8002b34:	d9800315 	stw	r6,12(sp)
 8002b38:	da000215 	stw	r8,8(sp)
 8002b3c:	da400015 	stw	r9,0(sp)
 8002b40:	8003a300 	call	8003a30 <__clzsi2>
 8002b44:	d9800317 	ldw	r6,12(sp)
 8002b48:	da000217 	ldw	r8,8(sp)
 8002b4c:	da400017 	ldw	r9,0(sp)
 8002b50:	1007883a 	mov	r3,r2
 8002b54:	01000a04 	movi	r4,40
 8002b58:	1d7ffe04 	addi	r21,r3,-8
 8002b5c:	20c9c83a 	sub	r4,r4,r3
 8002b60:	8560983a 	sll	r16,r16,r21
 8002b64:	3108d83a 	srl	r4,r6,r4
 8002b68:	356a983a 	sll	r21,r6,r21
 8002b6c:	2420b03a 	or	r16,r4,r16
 8002b70:	017f0344 	movi	r5,-1011
 8002b74:	28cbc83a 	sub	r5,r5,r3
 8002b78:	000f883a 	mov	r7,zero
 8002b7c:	003f8b06 	br	80029ac <__alt_data_end+0xfc0029ac>
 8002b80:	0021883a 	mov	r16,zero
 8002b84:	002b883a 	mov	r21,zero
 8002b88:	01c00044 	movi	r7,1
 8002b8c:	003f8706 	br	80029ac <__alt_data_end+0xfc0029ac>
 8002b90:	01c000c4 	movi	r7,3
 8002b94:	003f8506 	br	80029ac <__alt_data_end+0xfc0029ac>
 8002b98:	04800104 	movi	r18,4
 8002b9c:	0023883a 	mov	r17,zero
 8002ba0:	0027883a 	mov	r19,zero
 8002ba4:	02000044 	movi	r8,1
 8002ba8:	003f6e06 	br	8002964 <__alt_data_end+0xfc002964>
 8002bac:	04800304 	movi	r18,12
 8002bb0:	020000c4 	movi	r8,3
 8002bb4:	003f6b06 	br	8002964 <__alt_data_end+0xfc002964>
 8002bb8:	01400434 	movhi	r5,16
 8002bbc:	000d883a 	mov	r6,zero
 8002bc0:	297fffc4 	addi	r5,r5,-1
 8002bc4:	04ffffc4 	movi	r19,-1
 8002bc8:	0101ffc4 	movi	r4,2047
 8002bcc:	003fa406 	br	8002a60 <__alt_data_end+0xfc002a60>
 8002bd0:	043f0084 	movi	r16,-1022
 8002bd4:	8521c83a 	sub	r16,r16,r20
 8002bd8:	00800e04 	movi	r2,56
 8002bdc:	1401200e 	bge	r2,r16,8003060 <__divdf3+0x778>
 8002be0:	9180004c 	andi	r6,r18,1
 8002be4:	0009883a 	mov	r4,zero
 8002be8:	000b883a 	mov	r5,zero
 8002bec:	0027883a 	mov	r19,zero
 8002bf0:	003f9b06 	br	8002a60 <__alt_data_end+0xfc002a60>
 8002bf4:	8880022c 	andhi	r2,r17,8
 8002bf8:	1000c726 	beq	r2,zero,8002f18 <__divdf3+0x630>
 8002bfc:	8080022c 	andhi	r2,r16,8
 8002c00:	1000c51e 	bne	r2,zero,8002f18 <__divdf3+0x630>
 8002c04:	00800434 	movhi	r2,16
 8002c08:	81400234 	orhi	r5,r16,8
 8002c0c:	10bfffc4 	addi	r2,r2,-1
 8002c10:	b80d883a 	mov	r6,r23
 8002c14:	288a703a 	and	r5,r5,r2
 8002c18:	a827883a 	mov	r19,r21
 8002c1c:	003fea06 	br	8002bc8 <__alt_data_end+0xfc002bc8>
 8002c20:	8440ea36 	bltu	r16,r17,8002fcc <__divdf3+0x6e4>
 8002c24:	8c00e826 	beq	r17,r16,8002fc8 <__divdf3+0x6e0>
 8002c28:	a53fffc4 	addi	r20,r20,-1
 8002c2c:	882d883a 	mov	r22,r17
 8002c30:	000d883a 	mov	r6,zero
 8002c34:	a804d63a 	srli	r2,r21,24
 8002c38:	8020923a 	slli	r16,r16,8
 8002c3c:	b009883a 	mov	r4,r22
 8002c40:	d9800315 	stw	r6,12(sp)
 8002c44:	1420b03a 	or	r16,r2,r16
 8002c48:	802ed43a 	srli	r23,r16,16
 8002c4c:	873fffcc 	andi	fp,r16,65535
 8002c50:	a82a923a 	slli	r21,r21,8
 8002c54:	b80b883a 	mov	r5,r23
 8002c58:	8003bb00 	call	8003bb0 <__udivsi3>
 8002c5c:	b009883a 	mov	r4,r22
 8002c60:	b80b883a 	mov	r5,r23
 8002c64:	1023883a 	mov	r17,r2
 8002c68:	8003bb80 	call	8003bb8 <__umodsi3>
 8002c6c:	1004943a 	slli	r2,r2,16
 8002c70:	9808d43a 	srli	r4,r19,16
 8002c74:	8f2d383a 	mul	r22,r17,fp
 8002c78:	d9800317 	ldw	r6,12(sp)
 8002c7c:	1106b03a 	or	r3,r2,r4
 8002c80:	1d80062e 	bgeu	r3,r22,8002c9c <__divdf3+0x3b4>
 8002c84:	1c07883a 	add	r3,r3,r16
 8002c88:	88bfffc4 	addi	r2,r17,-1
 8002c8c:	1c00dc36 	bltu	r3,r16,8003000 <__divdf3+0x718>
 8002c90:	1d80db2e 	bgeu	r3,r22,8003000 <__divdf3+0x718>
 8002c94:	8c7fff84 	addi	r17,r17,-2
 8002c98:	1c07883a 	add	r3,r3,r16
 8002c9c:	1dadc83a 	sub	r22,r3,r22
 8002ca0:	b009883a 	mov	r4,r22
 8002ca4:	b80b883a 	mov	r5,r23
 8002ca8:	d9800315 	stw	r6,12(sp)
 8002cac:	8003bb00 	call	8003bb0 <__udivsi3>
 8002cb0:	b009883a 	mov	r4,r22
 8002cb4:	b80b883a 	mov	r5,r23
 8002cb8:	d8800015 	stw	r2,0(sp)
 8002cbc:	8003bb80 	call	8003bb8 <__umodsi3>
 8002cc0:	da400017 	ldw	r9,0(sp)
 8002cc4:	1004943a 	slli	r2,r2,16
 8002cc8:	9cffffcc 	andi	r19,r19,65535
 8002ccc:	4f07383a 	mul	r3,r9,fp
 8002cd0:	14c8b03a 	or	r4,r2,r19
 8002cd4:	d9800317 	ldw	r6,12(sp)
 8002cd8:	20c0062e 	bgeu	r4,r3,8002cf4 <__divdf3+0x40c>
 8002cdc:	2409883a 	add	r4,r4,r16
 8002ce0:	48bfffc4 	addi	r2,r9,-1
 8002ce4:	2400c436 	bltu	r4,r16,8002ff8 <__divdf3+0x710>
 8002ce8:	20c0c32e 	bgeu	r4,r3,8002ff8 <__divdf3+0x710>
 8002cec:	4a7fff84 	addi	r9,r9,-2
 8002cf0:	2409883a 	add	r4,r4,r16
 8002cf4:	8822943a 	slli	r17,r17,16
 8002cf8:	a80ed43a 	srli	r7,r21,16
 8002cfc:	aa3fffcc 	andi	r8,r21,65535
 8002d00:	4c62b03a 	or	r17,r9,r17
 8002d04:	8816d43a 	srli	r11,r17,16
 8002d08:	897fffcc 	andi	r5,r17,65535
 8002d0c:	2a15383a 	mul	r10,r5,r8
 8002d10:	5a19383a 	mul	r12,r11,r8
 8002d14:	29cb383a 	mul	r5,r5,r7
 8002d18:	5012d43a 	srli	r9,r10,16
 8002d1c:	20c5c83a 	sub	r2,r4,r3
 8002d20:	614b883a 	add	r5,r12,r5
 8002d24:	2a4b883a 	add	r5,r5,r9
 8002d28:	59c7383a 	mul	r3,r11,r7
 8002d2c:	2b00022e 	bgeu	r5,r12,8002d38 <__divdf3+0x450>
 8002d30:	01000074 	movhi	r4,1
 8002d34:	1907883a 	add	r3,r3,r4
 8002d38:	2808d43a 	srli	r4,r5,16
 8002d3c:	280a943a 	slli	r5,r5,16
 8002d40:	54ffffcc 	andi	r19,r10,65535
 8002d44:	1907883a 	add	r3,r3,r4
 8002d48:	2ccb883a 	add	r5,r5,r19
 8002d4c:	10c09336 	bltu	r2,r3,8002f9c <__divdf3+0x6b4>
 8002d50:	10c0ad26 	beq	r2,r3,8003008 <__divdf3+0x720>
 8002d54:	10c7c83a 	sub	r3,r2,r3
 8002d58:	3167c83a 	sub	r19,r6,r5
 8002d5c:	34ed803a 	cmpltu	r22,r6,r19
 8002d60:	1dadc83a 	sub	r22,r3,r22
 8002d64:	b400b226 	beq	r22,r16,8003030 <__divdf3+0x748>
 8002d68:	b009883a 	mov	r4,r22
 8002d6c:	b80b883a 	mov	r5,r23
 8002d70:	d9c00115 	stw	r7,4(sp)
 8002d74:	da000215 	stw	r8,8(sp)
 8002d78:	8003bb00 	call	8003bb0 <__udivsi3>
 8002d7c:	b009883a 	mov	r4,r22
 8002d80:	b80b883a 	mov	r5,r23
 8002d84:	d8800315 	stw	r2,12(sp)
 8002d88:	8003bb80 	call	8003bb8 <__umodsi3>
 8002d8c:	d9800317 	ldw	r6,12(sp)
 8002d90:	1004943a 	slli	r2,r2,16
 8002d94:	9808d43a 	srli	r4,r19,16
 8002d98:	372d383a 	mul	r22,r6,fp
 8002d9c:	d9c00117 	ldw	r7,4(sp)
 8002da0:	1106b03a 	or	r3,r2,r4
 8002da4:	da000217 	ldw	r8,8(sp)
 8002da8:	1d80062e 	bgeu	r3,r22,8002dc4 <__divdf3+0x4dc>
 8002dac:	1c07883a 	add	r3,r3,r16
 8002db0:	30bfffc4 	addi	r2,r6,-1
 8002db4:	1c00a036 	bltu	r3,r16,8003038 <__divdf3+0x750>
 8002db8:	1d809f2e 	bgeu	r3,r22,8003038 <__divdf3+0x750>
 8002dbc:	31bfff84 	addi	r6,r6,-2
 8002dc0:	1c07883a 	add	r3,r3,r16
 8002dc4:	1dadc83a 	sub	r22,r3,r22
 8002dc8:	b009883a 	mov	r4,r22
 8002dcc:	b80b883a 	mov	r5,r23
 8002dd0:	d9800315 	stw	r6,12(sp)
 8002dd4:	d9c00115 	stw	r7,4(sp)
 8002dd8:	da000215 	stw	r8,8(sp)
 8002ddc:	8003bb00 	call	8003bb0 <__udivsi3>
 8002de0:	b009883a 	mov	r4,r22
 8002de4:	b80b883a 	mov	r5,r23
 8002de8:	d8800015 	stw	r2,0(sp)
 8002dec:	8003bb80 	call	8003bb8 <__umodsi3>
 8002df0:	da400017 	ldw	r9,0(sp)
 8002df4:	1004943a 	slli	r2,r2,16
 8002df8:	993fffcc 	andi	r4,r19,65535
 8002dfc:	4f39383a 	mul	fp,r9,fp
 8002e00:	1106b03a 	or	r3,r2,r4
 8002e04:	d9800317 	ldw	r6,12(sp)
 8002e08:	d9c00117 	ldw	r7,4(sp)
 8002e0c:	da000217 	ldw	r8,8(sp)
 8002e10:	1f00062e 	bgeu	r3,fp,8002e2c <__divdf3+0x544>
 8002e14:	1c07883a 	add	r3,r3,r16
 8002e18:	48bfffc4 	addi	r2,r9,-1
 8002e1c:	1c008836 	bltu	r3,r16,8003040 <__divdf3+0x758>
 8002e20:	1f00872e 	bgeu	r3,fp,8003040 <__divdf3+0x758>
 8002e24:	4a7fff84 	addi	r9,r9,-2
 8002e28:	1c07883a 	add	r3,r3,r16
 8002e2c:	3008943a 	slli	r4,r6,16
 8002e30:	1f07c83a 	sub	r3,r3,fp
 8002e34:	4926b03a 	or	r19,r9,r4
 8002e38:	993fffcc 	andi	r4,r19,65535
 8002e3c:	980cd43a 	srli	r6,r19,16
 8002e40:	220b383a 	mul	r5,r4,r8
 8002e44:	21c5383a 	mul	r2,r4,r7
 8002e48:	3211383a 	mul	r8,r6,r8
 8002e4c:	2808d43a 	srli	r4,r5,16
 8002e50:	31cf383a 	mul	r7,r6,r7
 8002e54:	4085883a 	add	r2,r8,r2
 8002e58:	1105883a 	add	r2,r2,r4
 8002e5c:	1200022e 	bgeu	r2,r8,8002e68 <__divdf3+0x580>
 8002e60:	01000074 	movhi	r4,1
 8002e64:	390f883a 	add	r7,r7,r4
 8002e68:	1008d43a 	srli	r4,r2,16
 8002e6c:	1004943a 	slli	r2,r2,16
 8002e70:	297fffcc 	andi	r5,r5,65535
 8002e74:	390f883a 	add	r7,r7,r4
 8002e78:	1145883a 	add	r2,r2,r5
 8002e7c:	19c06536 	bltu	r3,r7,8003014 <__divdf3+0x72c>
 8002e80:	19c09f26 	beq	r3,r7,8003100 <__divdf3+0x818>
 8002e84:	9cc00054 	ori	r19,r19,1
 8002e88:	a100ffc4 	addi	r4,r20,1023
 8002e8c:	013f500e 	bge	zero,r4,8002bd0 <__alt_data_end+0xfc002bd0>
 8002e90:	988001cc 	andi	r2,r19,7
 8002e94:	10000726 	beq	r2,zero,8002eb4 <__divdf3+0x5cc>
 8002e98:	98c003cc 	andi	r3,r19,15
 8002e9c:	00800104 	movi	r2,4
 8002ea0:	18800426 	beq	r3,r2,8002eb4 <__divdf3+0x5cc>
 8002ea4:	9885883a 	add	r2,r19,r2
 8002ea8:	14e1803a 	cmpltu	r16,r2,r19
 8002eac:	8c23883a 	add	r17,r17,r16
 8002eb0:	1027883a 	mov	r19,r2
 8002eb4:	8880402c 	andhi	r2,r17,256
 8002eb8:	10000426 	beq	r2,zero,8002ecc <__divdf3+0x5e4>
 8002ebc:	00bfc034 	movhi	r2,65280
 8002ec0:	10bfffc4 	addi	r2,r2,-1
 8002ec4:	a1010004 	addi	r4,r20,1024
 8002ec8:	88a2703a 	and	r17,r17,r2
 8002ecc:	0081ff84 	movi	r2,2046
 8002ed0:	113edf16 	blt	r2,r4,8002a50 <__alt_data_end+0xfc002a50>
 8002ed4:	9826d0fa 	srli	r19,r19,3
 8002ed8:	8804977a 	slli	r2,r17,29
 8002edc:	8820927a 	slli	r16,r17,9
 8002ee0:	2101ffcc 	andi	r4,r4,2047
 8002ee4:	14e6b03a 	or	r19,r2,r19
 8002ee8:	800ad33a 	srli	r5,r16,12
 8002eec:	9180004c 	andi	r6,r18,1
 8002ef0:	003edb06 	br	8002a60 <__alt_data_end+0xfc002a60>
 8002ef4:	008000c4 	movi	r2,3
 8002ef8:	4080a826 	beq	r8,r2,800319c <__divdf3+0x8b4>
 8002efc:	00800044 	movi	r2,1
 8002f00:	4080551e 	bne	r8,r2,8003058 <__divdf3+0x770>
 8002f04:	e00d883a 	mov	r6,fp
 8002f08:	0009883a 	mov	r4,zero
 8002f0c:	000b883a 	mov	r5,zero
 8002f10:	0027883a 	mov	r19,zero
 8002f14:	003ed206 	br	8002a60 <__alt_data_end+0xfc002a60>
 8002f18:	00800434 	movhi	r2,16
 8002f1c:	89400234 	orhi	r5,r17,8
 8002f20:	10bfffc4 	addi	r2,r2,-1
 8002f24:	b00d883a 	mov	r6,r22
 8002f28:	288a703a 	and	r5,r5,r2
 8002f2c:	003f2606 	br	8002bc8 <__alt_data_end+0xfc002bc8>
 8002f30:	d9800315 	stw	r6,12(sp)
 8002f34:	d9c00115 	stw	r7,4(sp)
 8002f38:	8003a300 	call	8003a30 <__clzsi2>
 8002f3c:	10c00804 	addi	r3,r2,32
 8002f40:	010009c4 	movi	r4,39
 8002f44:	d9800317 	ldw	r6,12(sp)
 8002f48:	d9c00117 	ldw	r7,4(sp)
 8002f4c:	20fee30e 	bge	r4,r3,8002adc <__alt_data_end+0xfc002adc>
 8002f50:	117ffe04 	addi	r5,r2,-8
 8002f54:	9162983a 	sll	r17,r18,r5
 8002f58:	0027883a 	mov	r19,zero
 8002f5c:	003ee606 	br	8002af8 <__alt_data_end+0xfc002af8>
 8002f60:	3009883a 	mov	r4,r6
 8002f64:	d9800315 	stw	r6,12(sp)
 8002f68:	da000215 	stw	r8,8(sp)
 8002f6c:	da400015 	stw	r9,0(sp)
 8002f70:	8003a300 	call	8003a30 <__clzsi2>
 8002f74:	10c00804 	addi	r3,r2,32
 8002f78:	010009c4 	movi	r4,39
 8002f7c:	d9800317 	ldw	r6,12(sp)
 8002f80:	da000217 	ldw	r8,8(sp)
 8002f84:	da400017 	ldw	r9,0(sp)
 8002f88:	20fef20e 	bge	r4,r3,8002b54 <__alt_data_end+0xfc002b54>
 8002f8c:	10bffe04 	addi	r2,r2,-8
 8002f90:	a8a0983a 	sll	r16,r21,r2
 8002f94:	002b883a 	mov	r21,zero
 8002f98:	003ef506 	br	8002b70 <__alt_data_end+0xfc002b70>
 8002f9c:	354d883a 	add	r6,r6,r21
 8002fa0:	3549803a 	cmpltu	r4,r6,r21
 8002fa4:	2409883a 	add	r4,r4,r16
 8002fa8:	2089883a 	add	r4,r4,r2
 8002fac:	88bfffc4 	addi	r2,r17,-1
 8002fb0:	81000c2e 	bgeu	r16,r4,8002fe4 <__divdf3+0x6fc>
 8002fb4:	20c04436 	bltu	r4,r3,80030c8 <__divdf3+0x7e0>
 8002fb8:	19006f26 	beq	r3,r4,8003178 <__divdf3+0x890>
 8002fbc:	20c7c83a 	sub	r3,r4,r3
 8002fc0:	1023883a 	mov	r17,r2
 8002fc4:	003f6406 	br	8002d58 <__alt_data_end+0xfc002d58>
 8002fc8:	9d7f1736 	bltu	r19,r21,8002c28 <__alt_data_end+0xfc002c28>
 8002fcc:	9806d07a 	srli	r3,r19,1
 8002fd0:	880497fa 	slli	r2,r17,31
 8002fd4:	980c97fa 	slli	r6,r19,31
 8002fd8:	882cd07a 	srli	r22,r17,1
 8002fdc:	18a6b03a 	or	r19,r3,r2
 8002fe0:	003f1406 	br	8002c34 <__alt_data_end+0xfc002c34>
 8002fe4:	243ff51e 	bne	r4,r16,8002fbc <__alt_data_end+0xfc002fbc>
 8002fe8:	357ff22e 	bgeu	r6,r21,8002fb4 <__alt_data_end+0xfc002fb4>
 8002fec:	80c7c83a 	sub	r3,r16,r3
 8002ff0:	1023883a 	mov	r17,r2
 8002ff4:	003f5806 	br	8002d58 <__alt_data_end+0xfc002d58>
 8002ff8:	1013883a 	mov	r9,r2
 8002ffc:	003f3d06 	br	8002cf4 <__alt_data_end+0xfc002cf4>
 8003000:	1023883a 	mov	r17,r2
 8003004:	003f2506 	br	8002c9c <__alt_data_end+0xfc002c9c>
 8003008:	317fe436 	bltu	r6,r5,8002f9c <__alt_data_end+0xfc002f9c>
 800300c:	0007883a 	mov	r3,zero
 8003010:	003f5106 	br	8002d58 <__alt_data_end+0xfc002d58>
 8003014:	1c07883a 	add	r3,r3,r16
 8003018:	993fffc4 	addi	r4,r19,-1
 800301c:	1c000a2e 	bgeu	r3,r16,8003048 <__divdf3+0x760>
 8003020:	2027883a 	mov	r19,r4
 8003024:	19ff971e 	bne	r3,r7,8002e84 <__alt_data_end+0xfc002e84>
 8003028:	a8bf961e 	bne	r21,r2,8002e84 <__alt_data_end+0xfc002e84>
 800302c:	003f9606 	br	8002e88 <__alt_data_end+0xfc002e88>
 8003030:	04ffffc4 	movi	r19,-1
 8003034:	003f9406 	br	8002e88 <__alt_data_end+0xfc002e88>
 8003038:	100d883a 	mov	r6,r2
 800303c:	003f6106 	br	8002dc4 <__alt_data_end+0xfc002dc4>
 8003040:	1013883a 	mov	r9,r2
 8003044:	003f7906 	br	8002e2c <__alt_data_end+0xfc002e2c>
 8003048:	19c02636 	bltu	r3,r7,80030e4 <__divdf3+0x7fc>
 800304c:	38c04d26 	beq	r7,r3,8003184 <__divdf3+0x89c>
 8003050:	2027883a 	mov	r19,r4
 8003054:	003f8b06 	br	8002e84 <__alt_data_end+0xfc002e84>
 8003058:	e025883a 	mov	r18,fp
 800305c:	003f8a06 	br	8002e88 <__alt_data_end+0xfc002e88>
 8003060:	008007c4 	movi	r2,31
 8003064:	14002a16 	blt	r2,r16,8003110 <__divdf3+0x828>
 8003068:	a5010784 	addi	r20,r20,1054
 800306c:	8d04983a 	sll	r2,r17,r20
 8003070:	9c06d83a 	srl	r3,r19,r16
 8003074:	9d28983a 	sll	r20,r19,r20
 8003078:	8c20d83a 	srl	r16,r17,r16
 800307c:	1886b03a 	or	r3,r3,r2
 8003080:	a004c03a 	cmpne	r2,r20,zero
 8003084:	1884b03a 	or	r2,r3,r2
 8003088:	10c001cc 	andi	r3,r2,7
 800308c:	18000726 	beq	r3,zero,80030ac <__divdf3+0x7c4>
 8003090:	110003cc 	andi	r4,r2,15
 8003094:	00c00104 	movi	r3,4
 8003098:	20c00426 	beq	r4,r3,80030ac <__divdf3+0x7c4>
 800309c:	10c00104 	addi	r3,r2,4
 80030a0:	1885803a 	cmpltu	r2,r3,r2
 80030a4:	80a1883a 	add	r16,r16,r2
 80030a8:	1805883a 	mov	r2,r3
 80030ac:	80c0202c 	andhi	r3,r16,128
 80030b0:	18002d26 	beq	r3,zero,8003168 <__divdf3+0x880>
 80030b4:	9180004c 	andi	r6,r18,1
 80030b8:	01000044 	movi	r4,1
 80030bc:	000b883a 	mov	r5,zero
 80030c0:	0027883a 	mov	r19,zero
 80030c4:	003e6606 	br	8002a60 <__alt_data_end+0xfc002a60>
 80030c8:	354d883a 	add	r6,r6,r21
 80030cc:	356d803a 	cmpltu	r22,r6,r21
 80030d0:	b42d883a 	add	r22,r22,r16
 80030d4:	b12d883a 	add	r22,r22,r4
 80030d8:	8c7fff84 	addi	r17,r17,-2
 80030dc:	b0c7c83a 	sub	r3,r22,r3
 80030e0:	003f1d06 	br	8002d58 <__alt_data_end+0xfc002d58>
 80030e4:	ad4b883a 	add	r5,r21,r21
 80030e8:	2d6b803a 	cmpltu	r21,r5,r21
 80030ec:	ac2b883a 	add	r21,r21,r16
 80030f0:	1d47883a 	add	r3,r3,r21
 80030f4:	993fff84 	addi	r4,r19,-2
 80030f8:	282b883a 	mov	r21,r5
 80030fc:	003fc806 	br	8003020 <__alt_data_end+0xfc003020>
 8003100:	103fc41e 	bne	r2,zero,8003014 <__alt_data_end+0xfc003014>
 8003104:	002b883a 	mov	r21,zero
 8003108:	a8bf5e1e 	bne	r21,r2,8002e84 <__alt_data_end+0xfc002e84>
 800310c:	003f5e06 	br	8002e88 <__alt_data_end+0xfc002e88>
 8003110:	00bef884 	movi	r2,-1054
 8003114:	1505c83a 	sub	r2,r2,r20
 8003118:	00c00804 	movi	r3,32
 800311c:	8884d83a 	srl	r2,r17,r2
 8003120:	80c01c26 	beq	r16,r3,8003194 <__divdf3+0x8ac>
 8003124:	a0c10f84 	addi	r3,r20,1086
 8003128:	88c6983a 	sll	r3,r17,r3
 800312c:	1cc6b03a 	or	r3,r3,r19
 8003130:	1806c03a 	cmpne	r3,r3,zero
 8003134:	1884b03a 	or	r2,r3,r2
 8003138:	140001cc 	andi	r16,r2,7
 800313c:	8000061e 	bne	r16,zero,8003158 <__divdf3+0x870>
 8003140:	000b883a 	mov	r5,zero
 8003144:	1004d0fa 	srli	r2,r2,3
 8003148:	9180004c 	andi	r6,r18,1
 800314c:	0009883a 	mov	r4,zero
 8003150:	1426b03a 	or	r19,r2,r16
 8003154:	003e4206 	br	8002a60 <__alt_data_end+0xfc002a60>
 8003158:	110003cc 	andi	r4,r2,15
 800315c:	00c00104 	movi	r3,4
 8003160:	0021883a 	mov	r16,zero
 8003164:	20ffcd1e 	bne	r4,r3,800309c <__alt_data_end+0xfc00309c>
 8003168:	800a927a 	slli	r5,r16,9
 800316c:	8020977a 	slli	r16,r16,29
 8003170:	280ad33a 	srli	r5,r5,12
 8003174:	003ff306 	br	8003144 <__alt_data_end+0xfc003144>
 8003178:	317fd336 	bltu	r6,r5,80030c8 <__alt_data_end+0xfc0030c8>
 800317c:	1023883a 	mov	r17,r2
 8003180:	003fa206 	br	800300c <__alt_data_end+0xfc00300c>
 8003184:	a8bfd736 	bltu	r21,r2,80030e4 <__alt_data_end+0xfc0030e4>
 8003188:	2027883a 	mov	r19,r4
 800318c:	a8bf3d1e 	bne	r21,r2,8002e84 <__alt_data_end+0xfc002e84>
 8003190:	003f3d06 	br	8002e88 <__alt_data_end+0xfc002e88>
 8003194:	0007883a 	mov	r3,zero
 8003198:	003fe406 	br	800312c <__alt_data_end+0xfc00312c>
 800319c:	00800434 	movhi	r2,16
 80031a0:	89400234 	orhi	r5,r17,8
 80031a4:	10bfffc4 	addi	r2,r2,-1
 80031a8:	e00d883a 	mov	r6,fp
 80031ac:	288a703a 	and	r5,r5,r2
 80031b0:	003e8506 	br	8002bc8 <__alt_data_end+0xfc002bc8>

080031b4 <__muldf3>:
 80031b4:	defff204 	addi	sp,sp,-56
 80031b8:	2804d53a 	srli	r2,r5,20
 80031bc:	dd800a15 	stw	r22,40(sp)
 80031c0:	282cd7fa 	srli	r22,r5,31
 80031c4:	dc000415 	stw	r16,16(sp)
 80031c8:	04000434 	movhi	r16,16
 80031cc:	df000c15 	stw	fp,48(sp)
 80031d0:	dd000815 	stw	r20,32(sp)
 80031d4:	dcc00715 	stw	r19,28(sp)
 80031d8:	dc800615 	stw	r18,24(sp)
 80031dc:	dc400515 	stw	r17,20(sp)
 80031e0:	843fffc4 	addi	r16,r16,-1
 80031e4:	dfc00d15 	stw	ra,52(sp)
 80031e8:	ddc00b15 	stw	r23,44(sp)
 80031ec:	dd400915 	stw	r21,36(sp)
 80031f0:	1501ffcc 	andi	r20,r2,2047
 80031f4:	2023883a 	mov	r17,r4
 80031f8:	2025883a 	mov	r18,r4
 80031fc:	2c20703a 	and	r16,r5,r16
 8003200:	b027883a 	mov	r19,r22
 8003204:	b7003fcc 	andi	fp,r22,255
 8003208:	a0005926 	beq	r20,zero,8003370 <__muldf3+0x1bc>
 800320c:	0081ffc4 	movi	r2,2047
 8003210:	a0803426 	beq	r20,r2,80032e4 <__muldf3+0x130>
 8003214:	84000434 	orhi	r16,r16,16
 8003218:	2004d77a 	srli	r2,r4,29
 800321c:	802090fa 	slli	r16,r16,3
 8003220:	202490fa 	slli	r18,r4,3
 8003224:	a53f0044 	addi	r20,r20,-1023
 8003228:	80a0b03a 	or	r16,r16,r2
 800322c:	002b883a 	mov	r21,zero
 8003230:	0015883a 	mov	r10,zero
 8003234:	3812d53a 	srli	r9,r7,20
 8003238:	3806d7fa 	srli	r3,r7,31
 800323c:	02000434 	movhi	r8,16
 8003240:	423fffc4 	addi	r8,r8,-1
 8003244:	4941ffcc 	andi	r5,r9,2047
 8003248:	302f883a 	mov	r23,r6
 800324c:	3a22703a 	and	r17,r7,r8
 8003250:	1ac03fcc 	andi	r11,r3,255
 8003254:	28006226 	beq	r5,zero,80033e0 <__muldf3+0x22c>
 8003258:	0081ffc4 	movi	r2,2047
 800325c:	28805a26 	beq	r5,r2,80033c8 <__muldf3+0x214>
 8003260:	8a000434 	orhi	r8,r17,16
 8003264:	3004d77a 	srli	r2,r6,29
 8003268:	401090fa 	slli	r8,r8,3
 800326c:	302e90fa 	slli	r23,r6,3
 8003270:	297f0044 	addi	r5,r5,-1023
 8003274:	40a2b03a 	or	r17,r8,r2
 8003278:	0013883a 	mov	r9,zero
 800327c:	4d4cb03a 	or	r6,r9,r21
 8003280:	300c90ba 	slli	r6,r6,2
 8003284:	02020034 	movhi	r8,2048
 8003288:	420ca904 	addi	r8,r8,12964
 800328c:	320d883a 	add	r6,r6,r8
 8003290:	31800017 	ldw	r6,0(r6)
 8003294:	a14b883a 	add	r5,r20,r5
 8003298:	1dacf03a 	xor	r22,r3,r22
 800329c:	2b000044 	addi	r12,r5,1
 80032a0:	3000683a 	jmp	r6
 80032a4:	080034e0 	cmpeqi	zero,at,211
 80032a8:	080034cc 	andi	zero,at,211
 80032ac:	080034cc 	andi	zero,at,211
 80032b0:	080034b8 	rdprs	zero,at,210
 80032b4:	08003300 	call	800330 <__reset-0x77ffcd0>
 80032b8:	08003300 	call	800330 <__reset-0x77ffcd0>
 80032bc:	080034a0 	cmpeqi	zero,at,210
 80032c0:	080034b8 	rdprs	zero,at,210
 80032c4:	08003300 	call	800330 <__reset-0x77ffcd0>
 80032c8:	080034a0 	cmpeqi	zero,at,210
 80032cc:	08003300 	call	800330 <__reset-0x77ffcd0>
 80032d0:	080034b8 	rdprs	zero,at,210
 80032d4:	08003304 	addi	zero,at,204
 80032d8:	08003304 	addi	zero,at,204
 80032dc:	08003304 	addi	zero,at,204
 80032e0:	080036dc 	xori	zero,at,219
 80032e4:	8104b03a 	or	r2,r16,r4
 80032e8:	10006a1e 	bne	r2,zero,8003494 <__muldf3+0x2e0>
 80032ec:	05400204 	movi	r21,8
 80032f0:	0021883a 	mov	r16,zero
 80032f4:	0025883a 	mov	r18,zero
 80032f8:	02800084 	movi	r10,2
 80032fc:	003fcd06 	br	8003234 <__alt_data_end+0xfc003234>
 8003300:	b039883a 	mov	fp,r22
 8003304:	00800084 	movi	r2,2
 8003308:	50804e1e 	bne	r10,r2,8003444 <__muldf3+0x290>
 800330c:	e4c0004c 	andi	r19,fp,1
 8003310:	0101ffc4 	movi	r4,2047
 8003314:	0021883a 	mov	r16,zero
 8003318:	0025883a 	mov	r18,zero
 800331c:	2008953a 	slli	r4,r4,20
 8003320:	98c03fcc 	andi	r3,r19,255
 8003324:	01400434 	movhi	r5,16
 8003328:	297fffc4 	addi	r5,r5,-1
 800332c:	180697fa 	slli	r3,r3,31
 8003330:	8160703a 	and	r16,r16,r5
 8003334:	8120b03a 	or	r16,r16,r4
 8003338:	80c6b03a 	or	r3,r16,r3
 800333c:	9005883a 	mov	r2,r18
 8003340:	dfc00d17 	ldw	ra,52(sp)
 8003344:	df000c17 	ldw	fp,48(sp)
 8003348:	ddc00b17 	ldw	r23,44(sp)
 800334c:	dd800a17 	ldw	r22,40(sp)
 8003350:	dd400917 	ldw	r21,36(sp)
 8003354:	dd000817 	ldw	r20,32(sp)
 8003358:	dcc00717 	ldw	r19,28(sp)
 800335c:	dc800617 	ldw	r18,24(sp)
 8003360:	dc400517 	ldw	r17,20(sp)
 8003364:	dc000417 	ldw	r16,16(sp)
 8003368:	dec00e04 	addi	sp,sp,56
 800336c:	f800283a 	ret
 8003370:	8104b03a 	or	r2,r16,r4
 8003374:	10004226 	beq	r2,zero,8003480 <__muldf3+0x2cc>
 8003378:	8000f926 	beq	r16,zero,8003760 <__muldf3+0x5ac>
 800337c:	8009883a 	mov	r4,r16
 8003380:	d9800315 	stw	r6,12(sp)
 8003384:	d9c00015 	stw	r7,0(sp)
 8003388:	8003a300 	call	8003a30 <__clzsi2>
 800338c:	d9800317 	ldw	r6,12(sp)
 8003390:	d9c00017 	ldw	r7,0(sp)
 8003394:	1007883a 	mov	r3,r2
 8003398:	01000a04 	movi	r4,40
 800339c:	18bffe04 	addi	r2,r3,-8
 80033a0:	20c9c83a 	sub	r4,r4,r3
 80033a4:	80a0983a 	sll	r16,r16,r2
 80033a8:	8908d83a 	srl	r4,r17,r4
 80033ac:	88a4983a 	sll	r18,r17,r2
 80033b0:	2420b03a 	or	r16,r4,r16
 80033b4:	017f0344 	movi	r5,-1011
 80033b8:	28e9c83a 	sub	r20,r5,r3
 80033bc:	002b883a 	mov	r21,zero
 80033c0:	0015883a 	mov	r10,zero
 80033c4:	003f9b06 	br	8003234 <__alt_data_end+0xfc003234>
 80033c8:	8984b03a 	or	r2,r17,r6
 80033cc:	10002a1e 	bne	r2,zero,8003478 <__muldf3+0x2c4>
 80033d0:	0023883a 	mov	r17,zero
 80033d4:	002f883a 	mov	r23,zero
 80033d8:	02400084 	movi	r9,2
 80033dc:	003fa706 	br	800327c <__alt_data_end+0xfc00327c>
 80033e0:	8984b03a 	or	r2,r17,r6
 80033e4:	10002026 	beq	r2,zero,8003468 <__muldf3+0x2b4>
 80033e8:	8800cc26 	beq	r17,zero,800371c <__muldf3+0x568>
 80033ec:	8809883a 	mov	r4,r17
 80033f0:	d8c00215 	stw	r3,8(sp)
 80033f4:	d9800315 	stw	r6,12(sp)
 80033f8:	da800015 	stw	r10,0(sp)
 80033fc:	dac00115 	stw	r11,4(sp)
 8003400:	8003a300 	call	8003a30 <__clzsi2>
 8003404:	d8c00217 	ldw	r3,8(sp)
 8003408:	d9800317 	ldw	r6,12(sp)
 800340c:	da800017 	ldw	r10,0(sp)
 8003410:	dac00117 	ldw	r11,4(sp)
 8003414:	1009883a 	mov	r4,r2
 8003418:	01400a04 	movi	r5,40
 800341c:	25fffe04 	addi	r23,r4,-8
 8003420:	290bc83a 	sub	r5,r5,r4
 8003424:	8dd0983a 	sll	r8,r17,r23
 8003428:	314ad83a 	srl	r5,r6,r5
 800342c:	35ee983a 	sll	r23,r6,r23
 8003430:	2a22b03a 	or	r17,r5,r8
 8003434:	017f0344 	movi	r5,-1011
 8003438:	290bc83a 	sub	r5,r5,r4
 800343c:	0013883a 	mov	r9,zero
 8003440:	003f8e06 	br	800327c <__alt_data_end+0xfc00327c>
 8003444:	008000c4 	movi	r2,3
 8003448:	50811d26 	beq	r10,r2,80038c0 <__muldf3+0x70c>
 800344c:	00800044 	movi	r2,1
 8003450:	5080e01e 	bne	r10,r2,80037d4 <__muldf3+0x620>
 8003454:	e0a6703a 	and	r19,fp,r2
 8003458:	0009883a 	mov	r4,zero
 800345c:	0021883a 	mov	r16,zero
 8003460:	0025883a 	mov	r18,zero
 8003464:	003fad06 	br	800331c <__alt_data_end+0xfc00331c>
 8003468:	0023883a 	mov	r17,zero
 800346c:	002f883a 	mov	r23,zero
 8003470:	02400044 	movi	r9,1
 8003474:	003f8106 	br	800327c <__alt_data_end+0xfc00327c>
 8003478:	024000c4 	movi	r9,3
 800347c:	003f7f06 	br	800327c <__alt_data_end+0xfc00327c>
 8003480:	05400104 	movi	r21,4
 8003484:	0021883a 	mov	r16,zero
 8003488:	0025883a 	mov	r18,zero
 800348c:	02800044 	movi	r10,1
 8003490:	003f6806 	br	8003234 <__alt_data_end+0xfc003234>
 8003494:	05400304 	movi	r21,12
 8003498:	028000c4 	movi	r10,3
 800349c:	003f6506 	br	8003234 <__alt_data_end+0xfc003234>
 80034a0:	04000434 	movhi	r16,16
 80034a4:	0027883a 	mov	r19,zero
 80034a8:	843fffc4 	addi	r16,r16,-1
 80034ac:	04bfffc4 	movi	r18,-1
 80034b0:	0101ffc4 	movi	r4,2047
 80034b4:	003f9906 	br	800331c <__alt_data_end+0xfc00331c>
 80034b8:	8821883a 	mov	r16,r17
 80034bc:	b825883a 	mov	r18,r23
 80034c0:	5839883a 	mov	fp,r11
 80034c4:	4815883a 	mov	r10,r9
 80034c8:	003f8e06 	br	8003304 <__alt_data_end+0xfc003304>
 80034cc:	8821883a 	mov	r16,r17
 80034d0:	b825883a 	mov	r18,r23
 80034d4:	b039883a 	mov	fp,r22
 80034d8:	4815883a 	mov	r10,r9
 80034dc:	003f8906 	br	8003304 <__alt_data_end+0xfc003304>
 80034e0:	b80cd43a 	srli	r6,r23,16
 80034e4:	9006d43a 	srli	r3,r18,16
 80034e8:	90bfffcc 	andi	r2,r18,65535
 80034ec:	bdffffcc 	andi	r23,r23,65535
 80034f0:	b891383a 	mul	r8,r23,r2
 80034f4:	b8c9383a 	mul	r4,r23,r3
 80034f8:	309b383a 	mul	r13,r6,r2
 80034fc:	400ed43a 	srli	r7,r8,16
 8003500:	30df383a 	mul	r15,r6,r3
 8003504:	235b883a 	add	r13,r4,r13
 8003508:	69db883a 	add	r13,r13,r7
 800350c:	6900022e 	bgeu	r13,r4,8003518 <__muldf3+0x364>
 8003510:	01000074 	movhi	r4,1
 8003514:	791f883a 	add	r15,r15,r4
 8003518:	8828d43a 	srli	r20,r17,16
 800351c:	8c7fffcc 	andi	r17,r17,65535
 8003520:	888f383a 	mul	r7,r17,r2
 8003524:	88d3383a 	mul	r9,r17,r3
 8003528:	a0a5383a 	mul	r18,r20,r2
 800352c:	3816d43a 	srli	r11,r7,16
 8003530:	6814943a 	slli	r10,r13,16
 8003534:	4ca5883a 	add	r18,r9,r18
 8003538:	423fffcc 	andi	r8,r8,65535
 800353c:	92e5883a 	add	r18,r18,r11
 8003540:	6808d43a 	srli	r4,r13,16
 8003544:	5215883a 	add	r10,r10,r8
 8003548:	a0c7383a 	mul	r3,r20,r3
 800354c:	9240022e 	bgeu	r18,r9,8003558 <__muldf3+0x3a4>
 8003550:	00800074 	movhi	r2,1
 8003554:	1887883a 	add	r3,r3,r2
 8003558:	802ad43a 	srli	r21,r16,16
 800355c:	80bfffcc 	andi	r2,r16,65535
 8003560:	b893383a 	mul	r9,r23,r2
 8003564:	3091383a 	mul	r8,r6,r2
 8003568:	bd6f383a 	mul	r23,r23,r21
 800356c:	9026943a 	slli	r19,r18,16
 8003570:	481ad43a 	srli	r13,r9,16
 8003574:	9024d43a 	srli	r18,r18,16
 8003578:	39ffffcc 	andi	r7,r7,65535
 800357c:	ba11883a 	add	r8,r23,r8
 8003580:	99e7883a 	add	r19,r19,r7
 8003584:	4351883a 	add	r8,r8,r13
 8003588:	1c97883a 	add	r11,r3,r18
 800358c:	354d383a 	mul	r6,r6,r21
 8003590:	9925883a 	add	r18,r19,r4
 8003594:	45c0022e 	bgeu	r8,r23,80035a0 <__muldf3+0x3ec>
 8003598:	00c00074 	movhi	r3,1
 800359c:	30cd883a 	add	r6,r6,r3
 80035a0:	8889383a 	mul	r4,r17,r2
 80035a4:	8d63383a 	mul	r17,r17,r21
 80035a8:	a085383a 	mul	r2,r20,r2
 80035ac:	200ed43a 	srli	r7,r4,16
 80035b0:	401cd43a 	srli	r14,r8,16
 80035b4:	401a943a 	slli	r13,r8,16
 80035b8:	8885883a 	add	r2,r17,r2
 80035bc:	4a3fffcc 	andi	r8,r9,65535
 80035c0:	11c5883a 	add	r2,r2,r7
 80035c4:	339d883a 	add	r14,r6,r14
 80035c8:	6a11883a 	add	r8,r13,r8
 80035cc:	a561383a 	mul	r16,r20,r21
 80035d0:	1440022e 	bgeu	r2,r17,80035dc <__muldf3+0x428>
 80035d4:	00c00074 	movhi	r3,1
 80035d8:	80e1883a 	add	r16,r16,r3
 80035dc:	1006943a 	slli	r3,r2,16
 80035e0:	213fffcc 	andi	r4,r4,65535
 80035e4:	93db883a 	add	r13,r18,r15
 80035e8:	1909883a 	add	r4,r3,r4
 80035ec:	22c7883a 	add	r3,r4,r11
 80035f0:	6cd3803a 	cmpltu	r9,r13,r19
 80035f4:	6a09883a 	add	r4,r13,r8
 80035f8:	1a5b883a 	add	r13,r3,r9
 80035fc:	2211803a 	cmpltu	r8,r4,r8
 8003600:	734d883a 	add	r6,r14,r13
 8003604:	100ed43a 	srli	r7,r2,16
 8003608:	6a53803a 	cmpltu	r9,r13,r9
 800360c:	3205883a 	add	r2,r6,r8
 8003610:	1ac7803a 	cmpltu	r3,r3,r11
 8003614:	1211803a 	cmpltu	r8,r2,r8
 8003618:	48c6b03a 	or	r3,r9,r3
 800361c:	338d803a 	cmpltu	r6,r6,r14
 8003620:	19c7883a 	add	r3,r3,r7
 8003624:	418cb03a 	or	r6,r8,r6
 8003628:	1987883a 	add	r3,r3,r6
 800362c:	2024927a 	slli	r18,r4,9
 8003630:	1c07883a 	add	r3,r3,r16
 8003634:	1806927a 	slli	r3,r3,9
 8003638:	1020d5fa 	srli	r16,r2,23
 800363c:	2008d5fa 	srli	r4,r4,23
 8003640:	9294b03a 	or	r10,r18,r10
 8003644:	1004927a 	slli	r2,r2,9
 8003648:	5024c03a 	cmpne	r18,r10,zero
 800364c:	1c20b03a 	or	r16,r3,r16
 8003650:	9108b03a 	or	r4,r18,r4
 8003654:	80c0402c 	andhi	r3,r16,256
 8003658:	20a4b03a 	or	r18,r4,r2
 800365c:	18000726 	beq	r3,zero,800367c <__muldf3+0x4c8>
 8003660:	9006d07a 	srli	r3,r18,1
 8003664:	800897fa 	slli	r4,r16,31
 8003668:	9080004c 	andi	r2,r18,1
 800366c:	8020d07a 	srli	r16,r16,1
 8003670:	10c4b03a 	or	r2,r2,r3
 8003674:	1124b03a 	or	r18,r2,r4
 8003678:	600b883a 	mov	r5,r12
 800367c:	2900ffc4 	addi	r4,r5,1023
 8003680:	01004b0e 	bge	zero,r4,80037b0 <__muldf3+0x5fc>
 8003684:	908001cc 	andi	r2,r18,7
 8003688:	10000726 	beq	r2,zero,80036a8 <__muldf3+0x4f4>
 800368c:	90c003cc 	andi	r3,r18,15
 8003690:	00800104 	movi	r2,4
 8003694:	18800426 	beq	r3,r2,80036a8 <__muldf3+0x4f4>
 8003698:	9087883a 	add	r3,r18,r2
 800369c:	1c85803a 	cmpltu	r2,r3,r18
 80036a0:	80a1883a 	add	r16,r16,r2
 80036a4:	1825883a 	mov	r18,r3
 80036a8:	8080402c 	andhi	r2,r16,256
 80036ac:	10000426 	beq	r2,zero,80036c0 <__muldf3+0x50c>
 80036b0:	00bfc034 	movhi	r2,65280
 80036b4:	10bfffc4 	addi	r2,r2,-1
 80036b8:	29010004 	addi	r4,r5,1024
 80036bc:	80a0703a 	and	r16,r16,r2
 80036c0:	0081ff84 	movi	r2,2046
 80036c4:	1100320e 	bge	r2,r4,8003790 <__muldf3+0x5dc>
 80036c8:	b4c0004c 	andi	r19,r22,1
 80036cc:	0101ffc4 	movi	r4,2047
 80036d0:	0021883a 	mov	r16,zero
 80036d4:	0025883a 	mov	r18,zero
 80036d8:	003f1006 	br	800331c <__alt_data_end+0xfc00331c>
 80036dc:	8080022c 	andhi	r2,r16,8
 80036e0:	10000926 	beq	r2,zero,8003708 <__muldf3+0x554>
 80036e4:	8880022c 	andhi	r2,r17,8
 80036e8:	1000071e 	bne	r2,zero,8003708 <__muldf3+0x554>
 80036ec:	00800434 	movhi	r2,16
 80036f0:	8c000234 	orhi	r16,r17,8
 80036f4:	10bfffc4 	addi	r2,r2,-1
 80036f8:	1827883a 	mov	r19,r3
 80036fc:	80a0703a 	and	r16,r16,r2
 8003700:	b825883a 	mov	r18,r23
 8003704:	003f6a06 	br	80034b0 <__alt_data_end+0xfc0034b0>
 8003708:	00800434 	movhi	r2,16
 800370c:	84000234 	orhi	r16,r16,8
 8003710:	10bfffc4 	addi	r2,r2,-1
 8003714:	80a0703a 	and	r16,r16,r2
 8003718:	003f6506 	br	80034b0 <__alt_data_end+0xfc0034b0>
 800371c:	3009883a 	mov	r4,r6
 8003720:	d8c00215 	stw	r3,8(sp)
 8003724:	d9800315 	stw	r6,12(sp)
 8003728:	da800015 	stw	r10,0(sp)
 800372c:	dac00115 	stw	r11,4(sp)
 8003730:	8003a300 	call	8003a30 <__clzsi2>
 8003734:	11000804 	addi	r4,r2,32
 8003738:	014009c4 	movi	r5,39
 800373c:	d8c00217 	ldw	r3,8(sp)
 8003740:	d9800317 	ldw	r6,12(sp)
 8003744:	da800017 	ldw	r10,0(sp)
 8003748:	dac00117 	ldw	r11,4(sp)
 800374c:	293f320e 	bge	r5,r4,8003418 <__alt_data_end+0xfc003418>
 8003750:	10bffe04 	addi	r2,r2,-8
 8003754:	b8a2983a 	sll	r17,r23,r2
 8003758:	002f883a 	mov	r23,zero
 800375c:	003f3506 	br	8003434 <__alt_data_end+0xfc003434>
 8003760:	d9800315 	stw	r6,12(sp)
 8003764:	d9c00015 	stw	r7,0(sp)
 8003768:	8003a300 	call	8003a30 <__clzsi2>
 800376c:	10c00804 	addi	r3,r2,32
 8003770:	010009c4 	movi	r4,39
 8003774:	d9800317 	ldw	r6,12(sp)
 8003778:	d9c00017 	ldw	r7,0(sp)
 800377c:	20ff060e 	bge	r4,r3,8003398 <__alt_data_end+0xfc003398>
 8003780:	10bffe04 	addi	r2,r2,-8
 8003784:	88a0983a 	sll	r16,r17,r2
 8003788:	0025883a 	mov	r18,zero
 800378c:	003f0906 	br	80033b4 <__alt_data_end+0xfc0033b4>
 8003790:	9004d0fa 	srli	r2,r18,3
 8003794:	8024977a 	slli	r18,r16,29
 8003798:	8020927a 	slli	r16,r16,9
 800379c:	2101ffcc 	andi	r4,r4,2047
 80037a0:	90a4b03a 	or	r18,r18,r2
 80037a4:	8020d33a 	srli	r16,r16,12
 80037a8:	b4c0004c 	andi	r19,r22,1
 80037ac:	003edb06 	br	800331c <__alt_data_end+0xfc00331c>
 80037b0:	00ff0084 	movi	r3,-1022
 80037b4:	1947c83a 	sub	r3,r3,r5
 80037b8:	00800e04 	movi	r2,56
 80037bc:	10c0080e 	bge	r2,r3,80037e0 <__muldf3+0x62c>
 80037c0:	b4c0004c 	andi	r19,r22,1
 80037c4:	0009883a 	mov	r4,zero
 80037c8:	0021883a 	mov	r16,zero
 80037cc:	0025883a 	mov	r18,zero
 80037d0:	003ed206 	br	800331c <__alt_data_end+0xfc00331c>
 80037d4:	600b883a 	mov	r5,r12
 80037d8:	e02d883a 	mov	r22,fp
 80037dc:	003fa706 	br	800367c <__alt_data_end+0xfc00367c>
 80037e0:	008007c4 	movi	r2,31
 80037e4:	10c01816 	blt	r2,r3,8003848 <__muldf3+0x694>
 80037e8:	29410784 	addi	r5,r5,1054
 80037ec:	8144983a 	sll	r2,r16,r5
 80037f0:	90c8d83a 	srl	r4,r18,r3
 80037f4:	914a983a 	sll	r5,r18,r5
 80037f8:	80c6d83a 	srl	r3,r16,r3
 80037fc:	2088b03a 	or	r4,r4,r2
 8003800:	2804c03a 	cmpne	r2,r5,zero
 8003804:	2084b03a 	or	r2,r4,r2
 8003808:	110001cc 	andi	r4,r2,7
 800380c:	20000726 	beq	r4,zero,800382c <__muldf3+0x678>
 8003810:	114003cc 	andi	r5,r2,15
 8003814:	01000104 	movi	r4,4
 8003818:	29000426 	beq	r5,r4,800382c <__muldf3+0x678>
 800381c:	11000104 	addi	r4,r2,4
 8003820:	2085803a 	cmpltu	r2,r4,r2
 8003824:	1887883a 	add	r3,r3,r2
 8003828:	2005883a 	mov	r2,r4
 800382c:	1900202c 	andhi	r4,r3,128
 8003830:	20001826 	beq	r4,zero,8003894 <__muldf3+0x6e0>
 8003834:	b4c0004c 	andi	r19,r22,1
 8003838:	01000044 	movi	r4,1
 800383c:	0021883a 	mov	r16,zero
 8003840:	0025883a 	mov	r18,zero
 8003844:	003eb506 	br	800331c <__alt_data_end+0xfc00331c>
 8003848:	00bef884 	movi	r2,-1054
 800384c:	1145c83a 	sub	r2,r2,r5
 8003850:	8088d83a 	srl	r4,r16,r2
 8003854:	00800804 	movi	r2,32
 8003858:	18801726 	beq	r3,r2,80038b8 <__muldf3+0x704>
 800385c:	28810f84 	addi	r2,r5,1086
 8003860:	8084983a 	sll	r2,r16,r2
 8003864:	1484b03a 	or	r2,r2,r18
 8003868:	1004c03a 	cmpne	r2,r2,zero
 800386c:	1104b03a 	or	r2,r2,r4
 8003870:	10c001cc 	andi	r3,r2,7
 8003874:	18000b1e 	bne	r3,zero,80038a4 <__muldf3+0x6f0>
 8003878:	0021883a 	mov	r16,zero
 800387c:	1004d0fa 	srli	r2,r2,3
 8003880:	b4c0004c 	andi	r19,r22,1
 8003884:	0009883a 	mov	r4,zero
 8003888:	10e4b03a 	or	r18,r2,r3
 800388c:	003ea306 	br	800331c <__alt_data_end+0xfc00331c>
 8003890:	0007883a 	mov	r3,zero
 8003894:	1820927a 	slli	r16,r3,9
 8003898:	1806977a 	slli	r3,r3,29
 800389c:	8020d33a 	srli	r16,r16,12
 80038a0:	003ff606 	br	800387c <__alt_data_end+0xfc00387c>
 80038a4:	110003cc 	andi	r4,r2,15
 80038a8:	00c00104 	movi	r3,4
 80038ac:	20fff826 	beq	r4,r3,8003890 <__alt_data_end+0xfc003890>
 80038b0:	0007883a 	mov	r3,zero
 80038b4:	003fd906 	br	800381c <__alt_data_end+0xfc00381c>
 80038b8:	0005883a 	mov	r2,zero
 80038bc:	003fe906 	br	8003864 <__alt_data_end+0xfc003864>
 80038c0:	00800434 	movhi	r2,16
 80038c4:	84000234 	orhi	r16,r16,8
 80038c8:	10bfffc4 	addi	r2,r2,-1
 80038cc:	e4c0004c 	andi	r19,fp,1
 80038d0:	80a0703a 	and	r16,r16,r2
 80038d4:	003ef606 	br	80034b0 <__alt_data_end+0xfc0034b0>

080038d8 <__fixdfsi>:
 80038d8:	2806d53a 	srli	r3,r5,20
 80038dc:	00800434 	movhi	r2,16
 80038e0:	10bfffc4 	addi	r2,r2,-1
 80038e4:	18c1ffcc 	andi	r3,r3,2047
 80038e8:	0180ff84 	movi	r6,1022
 80038ec:	2884703a 	and	r2,r5,r2
 80038f0:	280ad7fa 	srli	r5,r5,31
 80038f4:	30c0130e 	bge	r6,r3,8003944 <__fixdfsi+0x6c>
 80038f8:	01810744 	movi	r6,1053
 80038fc:	30c00d16 	blt	r6,r3,8003934 <__fixdfsi+0x5c>
 8003900:	01810cc4 	movi	r6,1075
 8003904:	30cdc83a 	sub	r6,r6,r3
 8003908:	01c007c4 	movi	r7,31
 800390c:	10800434 	orhi	r2,r2,16
 8003910:	39800e0e 	bge	r7,r6,800394c <__fixdfsi+0x74>
 8003914:	010104c4 	movi	r4,1043
 8003918:	20c7c83a 	sub	r3,r4,r3
 800391c:	10c6d83a 	srl	r3,r2,r3
 8003920:	29403fcc 	andi	r5,r5,255
 8003924:	0145c83a 	sub	r2,zero,r5
 8003928:	1884f03a 	xor	r2,r3,r2
 800392c:	1145883a 	add	r2,r2,r5
 8003930:	f800283a 	ret
 8003934:	00a00034 	movhi	r2,32768
 8003938:	10bfffc4 	addi	r2,r2,-1
 800393c:	2885883a 	add	r2,r5,r2
 8003940:	f800283a 	ret
 8003944:	0005883a 	mov	r2,zero
 8003948:	f800283a 	ret
 800394c:	18fefb44 	addi	r3,r3,-1043
 8003950:	2188d83a 	srl	r4,r4,r6
 8003954:	10c6983a 	sll	r3,r2,r3
 8003958:	20c6b03a 	or	r3,r4,r3
 800395c:	003ff006 	br	8003920 <__alt_data_end+0xfc003920>

08003960 <__floatsidf>:
 8003960:	defffd04 	addi	sp,sp,-12
 8003964:	dc400115 	stw	r17,4(sp)
 8003968:	dfc00215 	stw	ra,8(sp)
 800396c:	dc000015 	stw	r16,0(sp)
 8003970:	2023883a 	mov	r17,r4
 8003974:	20001426 	beq	r4,zero,80039c8 <__floatsidf+0x68>
 8003978:	2020d7fa 	srli	r16,r4,31
 800397c:	80000126 	beq	r16,zero,8003984 <__floatsidf+0x24>
 8003980:	0123c83a 	sub	r17,zero,r4
 8003984:	8809883a 	mov	r4,r17
 8003988:	8003a300 	call	8003a30 <__clzsi2>
 800398c:	01410784 	movi	r5,1054
 8003990:	00c00284 	movi	r3,10
 8003994:	288bc83a 	sub	r5,r5,r2
 8003998:	18801c16 	blt	r3,r2,8003a0c <__floatsidf+0xac>
 800399c:	00c002c4 	movi	r3,11
 80039a0:	1887c83a 	sub	r3,r3,r2
 80039a4:	88c8d83a 	srl	r4,r17,r3
 80039a8:	00c00434 	movhi	r3,16
 80039ac:	18ffffc4 	addi	r3,r3,-1
 80039b0:	10800544 	addi	r2,r2,21
 80039b4:	20c8703a 	and	r4,r4,r3
 80039b8:	8884983a 	sll	r2,r17,r2
 80039bc:	28c1ffcc 	andi	r3,r5,2047
 80039c0:	800d883a 	mov	r6,r16
 80039c4:	00000406 	br	80039d8 <__floatsidf+0x78>
 80039c8:	000d883a 	mov	r6,zero
 80039cc:	0007883a 	mov	r3,zero
 80039d0:	0009883a 	mov	r4,zero
 80039d4:	0005883a 	mov	r2,zero
 80039d8:	180a953a 	slli	r5,r3,20
 80039dc:	31803fcc 	andi	r6,r6,255
 80039e0:	00c00434 	movhi	r3,16
 80039e4:	300c97fa 	slli	r6,r6,31
 80039e8:	18ffffc4 	addi	r3,r3,-1
 80039ec:	20c6703a 	and	r3,r4,r3
 80039f0:	1946b03a 	or	r3,r3,r5
 80039f4:	1986b03a 	or	r3,r3,r6
 80039f8:	dfc00217 	ldw	ra,8(sp)
 80039fc:	dc400117 	ldw	r17,4(sp)
 8003a00:	dc000017 	ldw	r16,0(sp)
 8003a04:	dec00304 	addi	sp,sp,12
 8003a08:	f800283a 	ret
 8003a0c:	10fffd44 	addi	r3,r2,-11
 8003a10:	88c8983a 	sll	r4,r17,r3
 8003a14:	00800434 	movhi	r2,16
 8003a18:	10bfffc4 	addi	r2,r2,-1
 8003a1c:	2088703a 	and	r4,r4,r2
 8003a20:	28c1ffcc 	andi	r3,r5,2047
 8003a24:	800d883a 	mov	r6,r16
 8003a28:	0005883a 	mov	r2,zero
 8003a2c:	003fea06 	br	80039d8 <__alt_data_end+0xfc0039d8>

08003a30 <__clzsi2>:
 8003a30:	00bfffd4 	movui	r2,65535
 8003a34:	11000b36 	bltu	r2,r4,8003a64 <__clzsi2+0x34>
 8003a38:	00803fc4 	movi	r2,255
 8003a3c:	1100122e 	bgeu	r2,r4,8003a88 <__clzsi2+0x58>
 8003a40:	00c00204 	movi	r3,8
 8003a44:	01400604 	movi	r5,24
 8003a48:	20c8d83a 	srl	r4,r4,r3
 8003a4c:	008200b4 	movhi	r2,2050
 8003a50:	10854004 	addi	r2,r2,5376
 8003a54:	1109883a 	add	r4,r2,r4
 8003a58:	20800003 	ldbu	r2,0(r4)
 8003a5c:	2885c83a 	sub	r2,r5,r2
 8003a60:	f800283a 	ret
 8003a64:	00804034 	movhi	r2,256
 8003a68:	10bfffc4 	addi	r2,r2,-1
 8003a6c:	11000336 	bltu	r2,r4,8003a7c <__clzsi2+0x4c>
 8003a70:	00c00404 	movi	r3,16
 8003a74:	180b883a 	mov	r5,r3
 8003a78:	003ff306 	br	8003a48 <__alt_data_end+0xfc003a48>
 8003a7c:	00c00604 	movi	r3,24
 8003a80:	01400204 	movi	r5,8
 8003a84:	003ff006 	br	8003a48 <__alt_data_end+0xfc003a48>
 8003a88:	0007883a 	mov	r3,zero
 8003a8c:	01400804 	movi	r5,32
 8003a90:	003fed06 	br	8003a48 <__alt_data_end+0xfc003a48>

08003a94 <udivmodsi4>:
 8003a94:	2900182e 	bgeu	r5,r4,8003af8 <udivmodsi4+0x64>
 8003a98:	28001716 	blt	r5,zero,8003af8 <udivmodsi4+0x64>
 8003a9c:	00800804 	movi	r2,32
 8003aa0:	00c00044 	movi	r3,1
 8003aa4:	00000206 	br	8003ab0 <udivmodsi4+0x1c>
 8003aa8:	10001126 	beq	r2,zero,8003af0 <udivmodsi4+0x5c>
 8003aac:	28000516 	blt	r5,zero,8003ac4 <udivmodsi4+0x30>
 8003ab0:	294b883a 	add	r5,r5,r5
 8003ab4:	10bfffc4 	addi	r2,r2,-1
 8003ab8:	18c7883a 	add	r3,r3,r3
 8003abc:	293ffa36 	bltu	r5,r4,8003aa8 <__alt_data_end+0xfc003aa8>
 8003ac0:	18000b26 	beq	r3,zero,8003af0 <udivmodsi4+0x5c>
 8003ac4:	0005883a 	mov	r2,zero
 8003ac8:	21400236 	bltu	r4,r5,8003ad4 <udivmodsi4+0x40>
 8003acc:	2149c83a 	sub	r4,r4,r5
 8003ad0:	10c4b03a 	or	r2,r2,r3
 8003ad4:	1806d07a 	srli	r3,r3,1
 8003ad8:	280ad07a 	srli	r5,r5,1
 8003adc:	183ffa1e 	bne	r3,zero,8003ac8 <__alt_data_end+0xfc003ac8>
 8003ae0:	3000011e 	bne	r6,zero,8003ae8 <udivmodsi4+0x54>
 8003ae4:	f800283a 	ret
 8003ae8:	2005883a 	mov	r2,r4
 8003aec:	f800283a 	ret
 8003af0:	0005883a 	mov	r2,zero
 8003af4:	003ffa06 	br	8003ae0 <__alt_data_end+0xfc003ae0>
 8003af8:	00c00044 	movi	r3,1
 8003afc:	003ff106 	br	8003ac4 <__alt_data_end+0xfc003ac4>

08003b00 <__divsi3>:
 8003b00:	defffe04 	addi	sp,sp,-8
 8003b04:	dfc00115 	stw	ra,4(sp)
 8003b08:	dc000015 	stw	r16,0(sp)
 8003b0c:	20000b16 	blt	r4,zero,8003b3c <__divsi3+0x3c>
 8003b10:	0021883a 	mov	r16,zero
 8003b14:	28000c16 	blt	r5,zero,8003b48 <__divsi3+0x48>
 8003b18:	000d883a 	mov	r6,zero
 8003b1c:	8003a940 	call	8003a94 <udivmodsi4>
 8003b20:	0407c83a 	sub	r3,zero,r16
 8003b24:	1884f03a 	xor	r2,r3,r2
 8003b28:	1405883a 	add	r2,r2,r16
 8003b2c:	dfc00117 	ldw	ra,4(sp)
 8003b30:	dc000017 	ldw	r16,0(sp)
 8003b34:	dec00204 	addi	sp,sp,8
 8003b38:	f800283a 	ret
 8003b3c:	0109c83a 	sub	r4,zero,r4
 8003b40:	04000044 	movi	r16,1
 8003b44:	283ff40e 	bge	r5,zero,8003b18 <__alt_data_end+0xfc003b18>
 8003b48:	014bc83a 	sub	r5,zero,r5
 8003b4c:	8400005c 	xori	r16,r16,1
 8003b50:	003ff106 	br	8003b18 <__alt_data_end+0xfc003b18>

08003b54 <__modsi3>:
 8003b54:	defffd04 	addi	sp,sp,-12
 8003b58:	dfc00215 	stw	ra,8(sp)
 8003b5c:	dc400115 	stw	r17,4(sp)
 8003b60:	dc000015 	stw	r16,0(sp)
 8003b64:	20000c16 	blt	r4,zero,8003b98 <__modsi3+0x44>
 8003b68:	0023883a 	mov	r17,zero
 8003b6c:	0021883a 	mov	r16,zero
 8003b70:	28000d16 	blt	r5,zero,8003ba8 <__modsi3+0x54>
 8003b74:	01800044 	movi	r6,1
 8003b78:	8003a940 	call	8003a94 <udivmodsi4>
 8003b7c:	1404f03a 	xor	r2,r2,r16
 8003b80:	8885883a 	add	r2,r17,r2
 8003b84:	dfc00217 	ldw	ra,8(sp)
 8003b88:	dc400117 	ldw	r17,4(sp)
 8003b8c:	dc000017 	ldw	r16,0(sp)
 8003b90:	dec00304 	addi	sp,sp,12
 8003b94:	f800283a 	ret
 8003b98:	0109c83a 	sub	r4,zero,r4
 8003b9c:	04400044 	movi	r17,1
 8003ba0:	043fffc4 	movi	r16,-1
 8003ba4:	283ff30e 	bge	r5,zero,8003b74 <__alt_data_end+0xfc003b74>
 8003ba8:	014bc83a 	sub	r5,zero,r5
 8003bac:	003ff106 	br	8003b74 <__alt_data_end+0xfc003b74>

08003bb0 <__udivsi3>:
 8003bb0:	000d883a 	mov	r6,zero
 8003bb4:	8003a941 	jmpi	8003a94 <udivmodsi4>

08003bb8 <__umodsi3>:
 8003bb8:	01800044 	movi	r6,1
 8003bbc:	8003a941 	jmpi	8003a94 <udivmodsi4>

08003bc0 <atof>:
 8003bc0:	000b883a 	mov	r5,zero
 8003bc4:	8005ccc1 	jmpi	8005ccc <strtod>

08003bc8 <malloc>:
 8003bc8:	008200b4 	movhi	r2,2050
 8003bcc:	108cfb04 	addi	r2,r2,13292
 8003bd0:	200b883a 	mov	r5,r4
 8003bd4:	11000017 	ldw	r4,0(r2)
 8003bd8:	8003bf01 	jmpi	8003bf0 <_malloc_r>

08003bdc <free>:
 8003bdc:	008200b4 	movhi	r2,2050
 8003be0:	108cfb04 	addi	r2,r2,13292
 8003be4:	200b883a 	mov	r5,r4
 8003be8:	11000017 	ldw	r4,0(r2)
 8003bec:	800c0181 	jmpi	800c018 <_free_r>

08003bf0 <_malloc_r>:
 8003bf0:	defff504 	addi	sp,sp,-44
 8003bf4:	dc800315 	stw	r18,12(sp)
 8003bf8:	dfc00a15 	stw	ra,40(sp)
 8003bfc:	df000915 	stw	fp,36(sp)
 8003c00:	ddc00815 	stw	r23,32(sp)
 8003c04:	dd800715 	stw	r22,28(sp)
 8003c08:	dd400615 	stw	r21,24(sp)
 8003c0c:	dd000515 	stw	r20,20(sp)
 8003c10:	dcc00415 	stw	r19,16(sp)
 8003c14:	dc400215 	stw	r17,8(sp)
 8003c18:	dc000115 	stw	r16,4(sp)
 8003c1c:	288002c4 	addi	r2,r5,11
 8003c20:	00c00584 	movi	r3,22
 8003c24:	2025883a 	mov	r18,r4
 8003c28:	18802a2e 	bgeu	r3,r2,8003cd4 <_malloc_r+0xe4>
 8003c2c:	047ffe04 	movi	r17,-8
 8003c30:	1462703a 	and	r17,r2,r17
 8003c34:	88009e16 	blt	r17,zero,8003eb0 <_malloc_r+0x2c0>
 8003c38:	89409d36 	bltu	r17,r5,8003eb0 <_malloc_r+0x2c0>
 8003c3c:	801488c0 	call	801488c <__malloc_lock>
 8003c40:	00807dc4 	movi	r2,503
 8003c44:	14402736 	bltu	r2,r17,8003ce4 <_malloc_r+0xf4>
 8003c48:	8806d0fa 	srli	r3,r17,3
 8003c4c:	04c200b4 	movhi	r19,2050
 8003c50:	9cc63804 	addi	r19,r19,6368
 8003c54:	18c5883a 	add	r2,r3,r3
 8003c58:	1085883a 	add	r2,r2,r2
 8003c5c:	1085883a 	add	r2,r2,r2
 8003c60:	9885883a 	add	r2,r19,r2
 8003c64:	14000317 	ldw	r16,12(r2)
 8003c68:	80814a26 	beq	r16,r2,8004194 <_malloc_r+0x5a4>
 8003c6c:	80c00117 	ldw	r3,4(r16)
 8003c70:	81000317 	ldw	r4,12(r16)
 8003c74:	00bfff04 	movi	r2,-4
 8003c78:	1884703a 	and	r2,r3,r2
 8003c7c:	81400217 	ldw	r5,8(r16)
 8003c80:	8085883a 	add	r2,r16,r2
 8003c84:	10c00117 	ldw	r3,4(r2)
 8003c88:	29000315 	stw	r4,12(r5)
 8003c8c:	21400215 	stw	r5,8(r4)
 8003c90:	18c00054 	ori	r3,r3,1
 8003c94:	10c00115 	stw	r3,4(r2)
 8003c98:	9009883a 	mov	r4,r18
 8003c9c:	80148ac0 	call	80148ac <__malloc_unlock>
 8003ca0:	80800204 	addi	r2,r16,8
 8003ca4:	dfc00a17 	ldw	ra,40(sp)
 8003ca8:	df000917 	ldw	fp,36(sp)
 8003cac:	ddc00817 	ldw	r23,32(sp)
 8003cb0:	dd800717 	ldw	r22,28(sp)
 8003cb4:	dd400617 	ldw	r21,24(sp)
 8003cb8:	dd000517 	ldw	r20,20(sp)
 8003cbc:	dcc00417 	ldw	r19,16(sp)
 8003cc0:	dc800317 	ldw	r18,12(sp)
 8003cc4:	dc400217 	ldw	r17,8(sp)
 8003cc8:	dc000117 	ldw	r16,4(sp)
 8003ccc:	dec00b04 	addi	sp,sp,44
 8003cd0:	f800283a 	ret
 8003cd4:	04400404 	movi	r17,16
 8003cd8:	89407536 	bltu	r17,r5,8003eb0 <_malloc_r+0x2c0>
 8003cdc:	801488c0 	call	801488c <__malloc_lock>
 8003ce0:	003fd906 	br	8003c48 <__alt_data_end+0xfc003c48>
 8003ce4:	8806d27a 	srli	r3,r17,9
 8003ce8:	18007526 	beq	r3,zero,8003ec0 <_malloc_r+0x2d0>
 8003cec:	00800104 	movi	r2,4
 8003cf0:	10c0ef36 	bltu	r2,r3,80040b0 <_malloc_r+0x4c0>
 8003cf4:	8806d1ba 	srli	r3,r17,6
 8003cf8:	19c00e04 	addi	r7,r3,56
 8003cfc:	39cb883a 	add	r5,r7,r7
 8003d00:	04c200b4 	movhi	r19,2050
 8003d04:	294b883a 	add	r5,r5,r5
 8003d08:	9cc63804 	addi	r19,r19,6368
 8003d0c:	294b883a 	add	r5,r5,r5
 8003d10:	994b883a 	add	r5,r19,r5
 8003d14:	2c000317 	ldw	r16,12(r5)
 8003d18:	2c000e26 	beq	r5,r16,8003d54 <_malloc_r+0x164>
 8003d1c:	80800117 	ldw	r2,4(r16)
 8003d20:	01bfff04 	movi	r6,-4
 8003d24:	010003c4 	movi	r4,15
 8003d28:	1184703a 	and	r2,r2,r6
 8003d2c:	1447c83a 	sub	r3,r2,r17
 8003d30:	20c00716 	blt	r4,r3,8003d50 <_malloc_r+0x160>
 8003d34:	1800650e 	bge	r3,zero,8003ecc <_malloc_r+0x2dc>
 8003d38:	84000317 	ldw	r16,12(r16)
 8003d3c:	2c000526 	beq	r5,r16,8003d54 <_malloc_r+0x164>
 8003d40:	80800117 	ldw	r2,4(r16)
 8003d44:	1184703a 	and	r2,r2,r6
 8003d48:	1447c83a 	sub	r3,r2,r17
 8003d4c:	20fff90e 	bge	r4,r3,8003d34 <__alt_data_end+0xfc003d34>
 8003d50:	39ffffc4 	addi	r7,r7,-1
 8003d54:	38c00044 	addi	r3,r7,1
 8003d58:	018200b4 	movhi	r6,2050
 8003d5c:	9c000417 	ldw	r16,16(r19)
 8003d60:	31863804 	addi	r6,r6,6368
 8003d64:	32400204 	addi	r9,r6,8
 8003d68:	82410326 	beq	r16,r9,8004178 <_malloc_r+0x588>
 8003d6c:	81000117 	ldw	r4,4(r16)
 8003d70:	00bfff04 	movi	r2,-4
 8003d74:	208e703a 	and	r7,r4,r2
 8003d78:	3c45c83a 	sub	r2,r7,r17
 8003d7c:	010003c4 	movi	r4,15
 8003d80:	2080ee16 	blt	r4,r2,800413c <_malloc_r+0x54c>
 8003d84:	32400515 	stw	r9,20(r6)
 8003d88:	32400415 	stw	r9,16(r6)
 8003d8c:	1000510e 	bge	r2,zero,8003ed4 <_malloc_r+0x2e4>
 8003d90:	00807fc4 	movi	r2,511
 8003d94:	11c0ce36 	bltu	r2,r7,80040d0 <_malloc_r+0x4e0>
 8003d98:	3808d0fa 	srli	r4,r7,3
 8003d9c:	01c00044 	movi	r7,1
 8003da0:	30800117 	ldw	r2,4(r6)
 8003da4:	210b883a 	add	r5,r4,r4
 8003da8:	294b883a 	add	r5,r5,r5
 8003dac:	2009d0ba 	srai	r4,r4,2
 8003db0:	294b883a 	add	r5,r5,r5
 8003db4:	298b883a 	add	r5,r5,r6
 8003db8:	2a000217 	ldw	r8,8(r5)
 8003dbc:	3908983a 	sll	r4,r7,r4
 8003dc0:	81400315 	stw	r5,12(r16)
 8003dc4:	82000215 	stw	r8,8(r16)
 8003dc8:	2088b03a 	or	r4,r4,r2
 8003dcc:	2c000215 	stw	r16,8(r5)
 8003dd0:	31000115 	stw	r4,4(r6)
 8003dd4:	44000315 	stw	r16,12(r8)
 8003dd8:	1805d0ba 	srai	r2,r3,2
 8003ddc:	01400044 	movi	r5,1
 8003de0:	288a983a 	sll	r5,r5,r2
 8003de4:	21404336 	bltu	r4,r5,8003ef4 <_malloc_r+0x304>
 8003de8:	2144703a 	and	r2,r4,r5
 8003dec:	10000a1e 	bne	r2,zero,8003e18 <_malloc_r+0x228>
 8003df0:	00bfff04 	movi	r2,-4
 8003df4:	294b883a 	add	r5,r5,r5
 8003df8:	1886703a 	and	r3,r3,r2
 8003dfc:	2144703a 	and	r2,r4,r5
 8003e00:	18c00104 	addi	r3,r3,4
 8003e04:	1000041e 	bne	r2,zero,8003e18 <_malloc_r+0x228>
 8003e08:	294b883a 	add	r5,r5,r5
 8003e0c:	2144703a 	and	r2,r4,r5
 8003e10:	18c00104 	addi	r3,r3,4
 8003e14:	103ffc26 	beq	r2,zero,8003e08 <__alt_data_end+0xfc003e08>
 8003e18:	023fff04 	movi	r8,-4
 8003e1c:	01c003c4 	movi	r7,15
 8003e20:	18c5883a 	add	r2,r3,r3
 8003e24:	1085883a 	add	r2,r2,r2
 8003e28:	1085883a 	add	r2,r2,r2
 8003e2c:	9895883a 	add	r10,r19,r2
 8003e30:	52c00304 	addi	r11,r10,12
 8003e34:	1819883a 	mov	r12,r3
 8003e38:	5c000017 	ldw	r16,0(r11)
 8003e3c:	59bffd04 	addi	r6,r11,-12
 8003e40:	8180041e 	bne	r16,r6,8003e54 <_malloc_r+0x264>
 8003e44:	0000ce06 	br	8004180 <_malloc_r+0x590>
 8003e48:	2000d70e 	bge	r4,zero,80041a8 <_malloc_r+0x5b8>
 8003e4c:	84000317 	ldw	r16,12(r16)
 8003e50:	8180cb26 	beq	r16,r6,8004180 <_malloc_r+0x590>
 8003e54:	80800117 	ldw	r2,4(r16)
 8003e58:	1204703a 	and	r2,r2,r8
 8003e5c:	1449c83a 	sub	r4,r2,r17
 8003e60:	393ff90e 	bge	r7,r4,8003e48 <__alt_data_end+0xfc003e48>
 8003e64:	80800317 	ldw	r2,12(r16)
 8003e68:	80c00217 	ldw	r3,8(r16)
 8003e6c:	89400054 	ori	r5,r17,1
 8003e70:	81400115 	stw	r5,4(r16)
 8003e74:	18800315 	stw	r2,12(r3)
 8003e78:	10c00215 	stw	r3,8(r2)
 8003e7c:	8463883a 	add	r17,r16,r17
 8003e80:	9c400515 	stw	r17,20(r19)
 8003e84:	9c400415 	stw	r17,16(r19)
 8003e88:	20800054 	ori	r2,r4,1
 8003e8c:	88800115 	stw	r2,4(r17)
 8003e90:	8a400315 	stw	r9,12(r17)
 8003e94:	8a400215 	stw	r9,8(r17)
 8003e98:	8923883a 	add	r17,r17,r4
 8003e9c:	89000015 	stw	r4,0(r17)
 8003ea0:	9009883a 	mov	r4,r18
 8003ea4:	80148ac0 	call	80148ac <__malloc_unlock>
 8003ea8:	80800204 	addi	r2,r16,8
 8003eac:	003f7d06 	br	8003ca4 <__alt_data_end+0xfc003ca4>
 8003eb0:	00800304 	movi	r2,12
 8003eb4:	90800015 	stw	r2,0(r18)
 8003eb8:	0005883a 	mov	r2,zero
 8003ebc:	003f7906 	br	8003ca4 <__alt_data_end+0xfc003ca4>
 8003ec0:	01401f84 	movi	r5,126
 8003ec4:	01c00fc4 	movi	r7,63
 8003ec8:	003f8d06 	br	8003d00 <__alt_data_end+0xfc003d00>
 8003ecc:	81000317 	ldw	r4,12(r16)
 8003ed0:	003f6a06 	br	8003c7c <__alt_data_end+0xfc003c7c>
 8003ed4:	81c5883a 	add	r2,r16,r7
 8003ed8:	10c00117 	ldw	r3,4(r2)
 8003edc:	9009883a 	mov	r4,r18
 8003ee0:	18c00054 	ori	r3,r3,1
 8003ee4:	10c00115 	stw	r3,4(r2)
 8003ee8:	80148ac0 	call	80148ac <__malloc_unlock>
 8003eec:	80800204 	addi	r2,r16,8
 8003ef0:	003f6c06 	br	8003ca4 <__alt_data_end+0xfc003ca4>
 8003ef4:	9c000217 	ldw	r16,8(r19)
 8003ef8:	00bfff04 	movi	r2,-4
 8003efc:	85800117 	ldw	r22,4(r16)
 8003f00:	b0ac703a 	and	r22,r22,r2
 8003f04:	b4400336 	bltu	r22,r17,8003f14 <_malloc_r+0x324>
 8003f08:	b445c83a 	sub	r2,r22,r17
 8003f0c:	00c003c4 	movi	r3,15
 8003f10:	18805d16 	blt	r3,r2,8004088 <_malloc_r+0x498>
 8003f14:	05c200b4 	movhi	r23,2050
 8003f18:	008200b4 	movhi	r2,2050
 8003f1c:	bdccf804 	addi	r23,r23,13280
 8003f20:	1093e804 	addi	r2,r2,20384
 8003f24:	15400017 	ldw	r21,0(r2)
 8003f28:	b9000017 	ldw	r4,0(r23)
 8003f2c:	00ffffc4 	movi	r3,-1
 8003f30:	858d883a 	add	r6,r16,r22
 8003f34:	8d6b883a 	add	r21,r17,r21
 8003f38:	20c0e426 	beq	r4,r3,80042cc <_malloc_r+0x6dc>
 8003f3c:	ad4403c4 	addi	r21,r21,4111
 8003f40:	00fc0004 	movi	r3,-4096
 8003f44:	a8ea703a 	and	r21,r21,r3
 8003f48:	9009883a 	mov	r4,r18
 8003f4c:	a80b883a 	mov	r5,r21
 8003f50:	d9800015 	stw	r6,0(sp)
 8003f54:	80044200 	call	8004420 <_sbrk_r>
 8003f58:	00ffffc4 	movi	r3,-1
 8003f5c:	1029883a 	mov	r20,r2
 8003f60:	d9800017 	ldw	r6,0(sp)
 8003f64:	10c0a426 	beq	r2,r3,80041f8 <_malloc_r+0x608>
 8003f68:	1180a236 	bltu	r2,r6,80041f4 <_malloc_r+0x604>
 8003f6c:	070200b4 	movhi	fp,2050
 8003f70:	e713f704 	addi	fp,fp,20444
 8003f74:	e0c00017 	ldw	r3,0(fp)
 8003f78:	a8c7883a 	add	r3,r21,r3
 8003f7c:	e0c00015 	stw	r3,0(fp)
 8003f80:	3500da26 	beq	r6,r20,80042ec <_malloc_r+0x6fc>
 8003f84:	b9000017 	ldw	r4,0(r23)
 8003f88:	00bfffc4 	movi	r2,-1
 8003f8c:	2080e426 	beq	r4,r2,8004320 <_malloc_r+0x730>
 8003f90:	a185c83a 	sub	r2,r20,r6
 8003f94:	1885883a 	add	r2,r3,r2
 8003f98:	e0800015 	stw	r2,0(fp)
 8003f9c:	a0c001cc 	andi	r3,r20,7
 8003fa0:	1800b526 	beq	r3,zero,8004278 <_malloc_r+0x688>
 8003fa4:	a0e9c83a 	sub	r20,r20,r3
 8003fa8:	00840204 	movi	r2,4104
 8003fac:	a5000204 	addi	r20,r20,8
 8003fb0:	10c7c83a 	sub	r3,r2,r3
 8003fb4:	a545883a 	add	r2,r20,r21
 8003fb8:	1083ffcc 	andi	r2,r2,4095
 8003fbc:	18abc83a 	sub	r21,r3,r2
 8003fc0:	9009883a 	mov	r4,r18
 8003fc4:	a80b883a 	mov	r5,r21
 8003fc8:	80044200 	call	8004420 <_sbrk_r>
 8003fcc:	00ffffc4 	movi	r3,-1
 8003fd0:	10c0d026 	beq	r2,r3,8004314 <_malloc_r+0x724>
 8003fd4:	1507c83a 	sub	r3,r2,r20
 8003fd8:	a8c7883a 	add	r3,r21,r3
 8003fdc:	18c00054 	ori	r3,r3,1
 8003fe0:	e0800017 	ldw	r2,0(fp)
 8003fe4:	9d000215 	stw	r20,8(r19)
 8003fe8:	a0c00115 	stw	r3,4(r20)
 8003fec:	a887883a 	add	r3,r21,r2
 8003ff0:	e0c00015 	stw	r3,0(fp)
 8003ff4:	84c00e26 	beq	r16,r19,8004030 <_malloc_r+0x440>
 8003ff8:	018003c4 	movi	r6,15
 8003ffc:	3580a02e 	bgeu	r6,r22,8004280 <_malloc_r+0x690>
 8004000:	81400117 	ldw	r5,4(r16)
 8004004:	013ffe04 	movi	r4,-8
 8004008:	b0bffd04 	addi	r2,r22,-12
 800400c:	1104703a 	and	r2,r2,r4
 8004010:	2900004c 	andi	r4,r5,1
 8004014:	1108b03a 	or	r4,r2,r4
 8004018:	81000115 	stw	r4,4(r16)
 800401c:	01400144 	movi	r5,5
 8004020:	8089883a 	add	r4,r16,r2
 8004024:	21400115 	stw	r5,4(r4)
 8004028:	21400215 	stw	r5,8(r4)
 800402c:	3080c036 	bltu	r6,r2,8004330 <_malloc_r+0x740>
 8004030:	008200b4 	movhi	r2,2050
 8004034:	1093e704 	addi	r2,r2,20380
 8004038:	11000017 	ldw	r4,0(r2)
 800403c:	20c0012e 	bgeu	r4,r3,8004044 <_malloc_r+0x454>
 8004040:	10c00015 	stw	r3,0(r2)
 8004044:	008200b4 	movhi	r2,2050
 8004048:	1093e604 	addi	r2,r2,20376
 800404c:	11000017 	ldw	r4,0(r2)
 8004050:	9c000217 	ldw	r16,8(r19)
 8004054:	20c0012e 	bgeu	r4,r3,800405c <_malloc_r+0x46c>
 8004058:	10c00015 	stw	r3,0(r2)
 800405c:	80c00117 	ldw	r3,4(r16)
 8004060:	00bfff04 	movi	r2,-4
 8004064:	1886703a 	and	r3,r3,r2
 8004068:	1c45c83a 	sub	r2,r3,r17
 800406c:	1c400236 	bltu	r3,r17,8004078 <_malloc_r+0x488>
 8004070:	00c003c4 	movi	r3,15
 8004074:	18800416 	blt	r3,r2,8004088 <_malloc_r+0x498>
 8004078:	9009883a 	mov	r4,r18
 800407c:	80148ac0 	call	80148ac <__malloc_unlock>
 8004080:	0005883a 	mov	r2,zero
 8004084:	003f0706 	br	8003ca4 <__alt_data_end+0xfc003ca4>
 8004088:	88c00054 	ori	r3,r17,1
 800408c:	80c00115 	stw	r3,4(r16)
 8004090:	8463883a 	add	r17,r16,r17
 8004094:	10800054 	ori	r2,r2,1
 8004098:	9c400215 	stw	r17,8(r19)
 800409c:	88800115 	stw	r2,4(r17)
 80040a0:	9009883a 	mov	r4,r18
 80040a4:	80148ac0 	call	80148ac <__malloc_unlock>
 80040a8:	80800204 	addi	r2,r16,8
 80040ac:	003efd06 	br	8003ca4 <__alt_data_end+0xfc003ca4>
 80040b0:	00800504 	movi	r2,20
 80040b4:	10c0482e 	bgeu	r2,r3,80041d8 <_malloc_r+0x5e8>
 80040b8:	00801504 	movi	r2,84
 80040bc:	10c06836 	bltu	r2,r3,8004260 <_malloc_r+0x670>
 80040c0:	8806d33a 	srli	r3,r17,12
 80040c4:	19c01b84 	addi	r7,r3,110
 80040c8:	39cb883a 	add	r5,r7,r7
 80040cc:	003f0c06 	br	8003d00 <__alt_data_end+0xfc003d00>
 80040d0:	3804d27a 	srli	r2,r7,9
 80040d4:	01000104 	movi	r4,4
 80040d8:	2080422e 	bgeu	r4,r2,80041e4 <_malloc_r+0x5f4>
 80040dc:	01000504 	movi	r4,20
 80040e0:	20807c36 	bltu	r4,r2,80042d4 <_malloc_r+0x6e4>
 80040e4:	110016c4 	addi	r4,r2,91
 80040e8:	210b883a 	add	r5,r4,r4
 80040ec:	294b883a 	add	r5,r5,r5
 80040f0:	294b883a 	add	r5,r5,r5
 80040f4:	994b883a 	add	r5,r19,r5
 80040f8:	28800217 	ldw	r2,8(r5)
 80040fc:	020200b4 	movhi	r8,2050
 8004100:	42063804 	addi	r8,r8,6368
 8004104:	11406326 	beq	r2,r5,8004294 <_malloc_r+0x6a4>
 8004108:	01bfff04 	movi	r6,-4
 800410c:	11000117 	ldw	r4,4(r2)
 8004110:	2188703a 	and	r4,r4,r6
 8004114:	3900022e 	bgeu	r7,r4,8004120 <_malloc_r+0x530>
 8004118:	10800217 	ldw	r2,8(r2)
 800411c:	28bffb1e 	bne	r5,r2,800410c <__alt_data_end+0xfc00410c>
 8004120:	11800317 	ldw	r6,12(r2)
 8004124:	99000117 	ldw	r4,4(r19)
 8004128:	81800315 	stw	r6,12(r16)
 800412c:	80800215 	stw	r2,8(r16)
 8004130:	34000215 	stw	r16,8(r6)
 8004134:	14000315 	stw	r16,12(r2)
 8004138:	003f2706 	br	8003dd8 <__alt_data_end+0xfc003dd8>
 800413c:	88c00054 	ori	r3,r17,1
 8004140:	80c00115 	stw	r3,4(r16)
 8004144:	8463883a 	add	r17,r16,r17
 8004148:	34400515 	stw	r17,20(r6)
 800414c:	34400415 	stw	r17,16(r6)
 8004150:	10c00054 	ori	r3,r2,1
 8004154:	8a400315 	stw	r9,12(r17)
 8004158:	8a400215 	stw	r9,8(r17)
 800415c:	88c00115 	stw	r3,4(r17)
 8004160:	88a3883a 	add	r17,r17,r2
 8004164:	88800015 	stw	r2,0(r17)
 8004168:	9009883a 	mov	r4,r18
 800416c:	80148ac0 	call	80148ac <__malloc_unlock>
 8004170:	80800204 	addi	r2,r16,8
 8004174:	003ecb06 	br	8003ca4 <__alt_data_end+0xfc003ca4>
 8004178:	31000117 	ldw	r4,4(r6)
 800417c:	003f1606 	br	8003dd8 <__alt_data_end+0xfc003dd8>
 8004180:	63000044 	addi	r12,r12,1
 8004184:	608000cc 	andi	r2,r12,3
 8004188:	5ac00204 	addi	r11,r11,8
 800418c:	103f2a1e 	bne	r2,zero,8003e38 <__alt_data_end+0xfc003e38>
 8004190:	00002106 	br	8004218 <_malloc_r+0x628>
 8004194:	80800204 	addi	r2,r16,8
 8004198:	84000517 	ldw	r16,20(r16)
 800419c:	143eb31e 	bne	r2,r16,8003c6c <__alt_data_end+0xfc003c6c>
 80041a0:	18c00084 	addi	r3,r3,2
 80041a4:	003eec06 	br	8003d58 <__alt_data_end+0xfc003d58>
 80041a8:	8085883a 	add	r2,r16,r2
 80041ac:	10c00117 	ldw	r3,4(r2)
 80041b0:	81000317 	ldw	r4,12(r16)
 80041b4:	81400217 	ldw	r5,8(r16)
 80041b8:	18c00054 	ori	r3,r3,1
 80041bc:	10c00115 	stw	r3,4(r2)
 80041c0:	29000315 	stw	r4,12(r5)
 80041c4:	21400215 	stw	r5,8(r4)
 80041c8:	9009883a 	mov	r4,r18
 80041cc:	80148ac0 	call	80148ac <__malloc_unlock>
 80041d0:	80800204 	addi	r2,r16,8
 80041d4:	003eb306 	br	8003ca4 <__alt_data_end+0xfc003ca4>
 80041d8:	19c016c4 	addi	r7,r3,91
 80041dc:	39cb883a 	add	r5,r7,r7
 80041e0:	003ec706 	br	8003d00 <__alt_data_end+0xfc003d00>
 80041e4:	3804d1ba 	srli	r2,r7,6
 80041e8:	11000e04 	addi	r4,r2,56
 80041ec:	210b883a 	add	r5,r4,r4
 80041f0:	003fbe06 	br	80040ec <__alt_data_end+0xfc0040ec>
 80041f4:	84ff5d26 	beq	r16,r19,8003f6c <__alt_data_end+0xfc003f6c>
 80041f8:	9c000217 	ldw	r16,8(r19)
 80041fc:	00bfff04 	movi	r2,-4
 8004200:	80c00117 	ldw	r3,4(r16)
 8004204:	1886703a 	and	r3,r3,r2
 8004208:	003f9706 	br	8004068 <__alt_data_end+0xfc004068>
 800420c:	52800017 	ldw	r10,0(r10)
 8004210:	18ffffc4 	addi	r3,r3,-1
 8004214:	50805c1e 	bne	r10,r2,8004388 <_malloc_r+0x798>
 8004218:	190000cc 	andi	r4,r3,3
 800421c:	50bffe04 	addi	r2,r10,-8
 8004220:	203ffa1e 	bne	r4,zero,800420c <__alt_data_end+0xfc00420c>
 8004224:	98800117 	ldw	r2,4(r19)
 8004228:	0146303a 	nor	r3,zero,r5
 800422c:	1884703a 	and	r2,r3,r2
 8004230:	98800115 	stw	r2,4(r19)
 8004234:	294b883a 	add	r5,r5,r5
 8004238:	117f2e36 	bltu	r2,r5,8003ef4 <__alt_data_end+0xfc003ef4>
 800423c:	283f2d26 	beq	r5,zero,8003ef4 <__alt_data_end+0xfc003ef4>
 8004240:	1146703a 	and	r3,r2,r5
 8004244:	1800521e 	bne	r3,zero,8004390 <_malloc_r+0x7a0>
 8004248:	6007883a 	mov	r3,r12
 800424c:	294b883a 	add	r5,r5,r5
 8004250:	1148703a 	and	r4,r2,r5
 8004254:	18c00104 	addi	r3,r3,4
 8004258:	203ffc26 	beq	r4,zero,800424c <__alt_data_end+0xfc00424c>
 800425c:	003ef006 	br	8003e20 <__alt_data_end+0xfc003e20>
 8004260:	00805504 	movi	r2,340
 8004264:	10c01336 	bltu	r2,r3,80042b4 <_malloc_r+0x6c4>
 8004268:	8806d3fa 	srli	r3,r17,15
 800426c:	19c01dc4 	addi	r7,r3,119
 8004270:	39cb883a 	add	r5,r7,r7
 8004274:	003ea206 	br	8003d00 <__alt_data_end+0xfc003d00>
 8004278:	00c40004 	movi	r3,4096
 800427c:	003f4d06 	br	8003fb4 <__alt_data_end+0xfc003fb4>
 8004280:	00800044 	movi	r2,1
 8004284:	a0800115 	stw	r2,4(r20)
 8004288:	a021883a 	mov	r16,r20
 800428c:	0007883a 	mov	r3,zero
 8004290:	003f7506 	br	8004068 <__alt_data_end+0xfc004068>
 8004294:	200bd0ba 	srai	r5,r4,2
 8004298:	01800044 	movi	r6,1
 800429c:	41000117 	ldw	r4,4(r8)
 80042a0:	314a983a 	sll	r5,r6,r5
 80042a4:	100d883a 	mov	r6,r2
 80042a8:	2908b03a 	or	r4,r5,r4
 80042ac:	41000115 	stw	r4,4(r8)
 80042b0:	003f9d06 	br	8004128 <__alt_data_end+0xfc004128>
 80042b4:	00815504 	movi	r2,1364
 80042b8:	10c01336 	bltu	r2,r3,8004308 <_malloc_r+0x718>
 80042bc:	8806d4ba 	srli	r3,r17,18
 80042c0:	19c01f04 	addi	r7,r3,124
 80042c4:	39cb883a 	add	r5,r7,r7
 80042c8:	003e8d06 	br	8003d00 <__alt_data_end+0xfc003d00>
 80042cc:	ad400404 	addi	r21,r21,16
 80042d0:	003f1d06 	br	8003f48 <__alt_data_end+0xfc003f48>
 80042d4:	01001504 	movi	r4,84
 80042d8:	20801c36 	bltu	r4,r2,800434c <_malloc_r+0x75c>
 80042dc:	3804d33a 	srli	r2,r7,12
 80042e0:	11001b84 	addi	r4,r2,110
 80042e4:	210b883a 	add	r5,r4,r4
 80042e8:	003f8006 	br	80040ec <__alt_data_end+0xfc0040ec>
 80042ec:	3083ffcc 	andi	r2,r6,4095
 80042f0:	103f241e 	bne	r2,zero,8003f84 <__alt_data_end+0xfc003f84>
 80042f4:	99000217 	ldw	r4,8(r19)
 80042f8:	ad85883a 	add	r2,r21,r22
 80042fc:	10800054 	ori	r2,r2,1
 8004300:	20800115 	stw	r2,4(r4)
 8004304:	003f4a06 	br	8004030 <__alt_data_end+0xfc004030>
 8004308:	01403f04 	movi	r5,252
 800430c:	01c01f84 	movi	r7,126
 8004310:	003e7b06 	br	8003d00 <__alt_data_end+0xfc003d00>
 8004314:	00c00044 	movi	r3,1
 8004318:	002b883a 	mov	r21,zero
 800431c:	003f3006 	br	8003fe0 <__alt_data_end+0xfc003fe0>
 8004320:	008200b4 	movhi	r2,2050
 8004324:	108cf804 	addi	r2,r2,13280
 8004328:	15000015 	stw	r20,0(r2)
 800432c:	003f1b06 	br	8003f9c <__alt_data_end+0xfc003f9c>
 8004330:	9009883a 	mov	r4,r18
 8004334:	81400204 	addi	r5,r16,8
 8004338:	800c0180 	call	800c018 <_free_r>
 800433c:	008200b4 	movhi	r2,2050
 8004340:	1093f704 	addi	r2,r2,20444
 8004344:	10c00017 	ldw	r3,0(r2)
 8004348:	003f3906 	br	8004030 <__alt_data_end+0xfc004030>
 800434c:	01005504 	movi	r4,340
 8004350:	20800436 	bltu	r4,r2,8004364 <_malloc_r+0x774>
 8004354:	3804d3fa 	srli	r2,r7,15
 8004358:	11001dc4 	addi	r4,r2,119
 800435c:	210b883a 	add	r5,r4,r4
 8004360:	003f6206 	br	80040ec <__alt_data_end+0xfc0040ec>
 8004364:	01015504 	movi	r4,1364
 8004368:	20800436 	bltu	r4,r2,800437c <_malloc_r+0x78c>
 800436c:	3804d4ba 	srli	r2,r7,18
 8004370:	11001f04 	addi	r4,r2,124
 8004374:	210b883a 	add	r5,r4,r4
 8004378:	003f5c06 	br	80040ec <__alt_data_end+0xfc0040ec>
 800437c:	01403f04 	movi	r5,252
 8004380:	01001f84 	movi	r4,126
 8004384:	003f5906 	br	80040ec <__alt_data_end+0xfc0040ec>
 8004388:	98800117 	ldw	r2,4(r19)
 800438c:	003fa906 	br	8004234 <__alt_data_end+0xfc004234>
 8004390:	6007883a 	mov	r3,r12
 8004394:	003ea206 	br	8003e20 <__alt_data_end+0xfc003e20>

08004398 <_printf_r>:
 8004398:	defffd04 	addi	sp,sp,-12
 800439c:	dfc00015 	stw	ra,0(sp)
 80043a0:	d9800115 	stw	r6,4(sp)
 80043a4:	d9c00215 	stw	r7,8(sp)
 80043a8:	280d883a 	mov	r6,r5
 80043ac:	21400217 	ldw	r5,8(r4)
 80043b0:	d9c00104 	addi	r7,sp,4
 80043b4:	8007e840 	call	8007e84 <___vfprintf_internal_r>
 80043b8:	dfc00017 	ldw	ra,0(sp)
 80043bc:	dec00304 	addi	sp,sp,12
 80043c0:	f800283a 	ret

080043c4 <printf>:
 80043c4:	defffc04 	addi	sp,sp,-16
 80043c8:	dfc00015 	stw	ra,0(sp)
 80043cc:	d9400115 	stw	r5,4(sp)
 80043d0:	d9800215 	stw	r6,8(sp)
 80043d4:	d9c00315 	stw	r7,12(sp)
 80043d8:	008200b4 	movhi	r2,2050
 80043dc:	108cfb04 	addi	r2,r2,13292
 80043e0:	10800017 	ldw	r2,0(r2)
 80043e4:	200b883a 	mov	r5,r4
 80043e8:	d9800104 	addi	r6,sp,4
 80043ec:	11000217 	ldw	r4,8(r2)
 80043f0:	8009e800 	call	8009e80 <__vfprintf_internal>
 80043f4:	dfc00017 	ldw	ra,0(sp)
 80043f8:	dec00404 	addi	sp,sp,16
 80043fc:	f800283a 	ret

08004400 <_putchar_r>:
 8004400:	21800217 	ldw	r6,8(r4)
 8004404:	800e66c1 	jmpi	800e66c <_putc_r>

08004408 <putchar>:
 8004408:	008200b4 	movhi	r2,2050
 800440c:	108cfb04 	addi	r2,r2,13292
 8004410:	200b883a 	mov	r5,r4
 8004414:	11000017 	ldw	r4,0(r2)
 8004418:	21800217 	ldw	r6,8(r4)
 800441c:	800e66c1 	jmpi	800e66c <_putc_r>

08004420 <_sbrk_r>:
 8004420:	defffd04 	addi	sp,sp,-12
 8004424:	dc000015 	stw	r16,0(sp)
 8004428:	040200b4 	movhi	r16,2050
 800442c:	dc400115 	stw	r17,4(sp)
 8004430:	8413e904 	addi	r16,r16,20388
 8004434:	2023883a 	mov	r17,r4
 8004438:	2809883a 	mov	r4,r5
 800443c:	dfc00215 	stw	ra,8(sp)
 8004440:	80000015 	stw	zero,0(r16)
 8004444:	8014a780 	call	8014a78 <sbrk>
 8004448:	00ffffc4 	movi	r3,-1
 800444c:	10c00526 	beq	r2,r3,8004464 <_sbrk_r+0x44>
 8004450:	dfc00217 	ldw	ra,8(sp)
 8004454:	dc400117 	ldw	r17,4(sp)
 8004458:	dc000017 	ldw	r16,0(sp)
 800445c:	dec00304 	addi	sp,sp,12
 8004460:	f800283a 	ret
 8004464:	80c00017 	ldw	r3,0(r16)
 8004468:	183ff926 	beq	r3,zero,8004450 <__alt_data_end+0xfc004450>
 800446c:	88c00015 	stw	r3,0(r17)
 8004470:	003ff706 	br	8004450 <__alt_data_end+0xfc004450>

08004474 <_sprintf_r>:
 8004474:	deffe404 	addi	sp,sp,-112
 8004478:	2807883a 	mov	r3,r5
 800447c:	dfc01a15 	stw	ra,104(sp)
 8004480:	d9c01b15 	stw	r7,108(sp)
 8004484:	00a00034 	movhi	r2,32768
 8004488:	10bfffc4 	addi	r2,r2,-1
 800448c:	02008204 	movi	r8,520
 8004490:	d8800215 	stw	r2,8(sp)
 8004494:	d8800515 	stw	r2,20(sp)
 8004498:	d80b883a 	mov	r5,sp
 800449c:	d9c01b04 	addi	r7,sp,108
 80044a0:	00bfffc4 	movi	r2,-1
 80044a4:	d8c00015 	stw	r3,0(sp)
 80044a8:	d8c00415 	stw	r3,16(sp)
 80044ac:	da00030d 	sth	r8,12(sp)
 80044b0:	d880038d 	sth	r2,14(sp)
 80044b4:	8005ea40 	call	8005ea4 <___svfprintf_internal_r>
 80044b8:	d8c00017 	ldw	r3,0(sp)
 80044bc:	18000005 	stb	zero,0(r3)
 80044c0:	dfc01a17 	ldw	ra,104(sp)
 80044c4:	dec01c04 	addi	sp,sp,112
 80044c8:	f800283a 	ret

080044cc <sprintf>:
 80044cc:	deffe304 	addi	sp,sp,-116
 80044d0:	2007883a 	mov	r3,r4
 80044d4:	dfc01a15 	stw	ra,104(sp)
 80044d8:	d9801b15 	stw	r6,108(sp)
 80044dc:	d9c01c15 	stw	r7,112(sp)
 80044e0:	010200b4 	movhi	r4,2050
 80044e4:	210cfb04 	addi	r4,r4,13292
 80044e8:	21000017 	ldw	r4,0(r4)
 80044ec:	00a00034 	movhi	r2,32768
 80044f0:	10bfffc4 	addi	r2,r2,-1
 80044f4:	280d883a 	mov	r6,r5
 80044f8:	02008204 	movi	r8,520
 80044fc:	d8800215 	stw	r2,8(sp)
 8004500:	d8800515 	stw	r2,20(sp)
 8004504:	d80b883a 	mov	r5,sp
 8004508:	d9c01b04 	addi	r7,sp,108
 800450c:	00bfffc4 	movi	r2,-1
 8004510:	d8c00015 	stw	r3,0(sp)
 8004514:	d8c00415 	stw	r3,16(sp)
 8004518:	da00030d 	sth	r8,12(sp)
 800451c:	d880038d 	sth	r2,14(sp)
 8004520:	8005ea40 	call	8005ea4 <___svfprintf_internal_r>
 8004524:	d8c00017 	ldw	r3,0(sp)
 8004528:	18000005 	stb	zero,0(r3)
 800452c:	dfc01a17 	ldw	ra,104(sp)
 8004530:	dec01d04 	addi	sp,sp,116
 8004534:	f800283a 	ret

08004538 <strcat>:
 8004538:	defffe04 	addi	sp,sp,-8
 800453c:	dc000015 	stw	r16,0(sp)
 8004540:	dfc00115 	stw	ra,4(sp)
 8004544:	208000cc 	andi	r2,r4,3
 8004548:	2021883a 	mov	r16,r4
 800454c:	1000111e 	bne	r2,zero,8004594 <strcat+0x5c>
 8004550:	20800017 	ldw	r2,0(r4)
 8004554:	027fbff4 	movhi	r9,65279
 8004558:	4a7fbfc4 	addi	r9,r9,-257
 800455c:	0086303a 	nor	r3,zero,r2
 8004560:	02202074 	movhi	r8,32897
 8004564:	1245883a 	add	r2,r2,r9
 8004568:	42202004 	addi	r8,r8,-32640
 800456c:	10c4703a 	and	r2,r2,r3
 8004570:	1204703a 	and	r2,r2,r8
 8004574:	1000071e 	bne	r2,zero,8004594 <strcat+0x5c>
 8004578:	21000104 	addi	r4,r4,4
 800457c:	21800017 	ldw	r6,0(r4)
 8004580:	324f883a 	add	r7,r6,r9
 8004584:	018c303a 	nor	r6,zero,r6
 8004588:	398c703a 	and	r6,r7,r6
 800458c:	320c703a 	and	r6,r6,r8
 8004590:	303ff926 	beq	r6,zero,8004578 <__alt_data_end+0xfc004578>
 8004594:	20800007 	ldb	r2,0(r4)
 8004598:	10000326 	beq	r2,zero,80045a8 <strcat+0x70>
 800459c:	21000044 	addi	r4,r4,1
 80045a0:	21800007 	ldb	r6,0(r4)
 80045a4:	303ffd1e 	bne	r6,zero,800459c <__alt_data_end+0xfc00459c>
 80045a8:	80046640 	call	8004664 <strcpy>
 80045ac:	8005883a 	mov	r2,r16
 80045b0:	dfc00117 	ldw	ra,4(sp)
 80045b4:	dc000017 	ldw	r16,0(sp)
 80045b8:	dec00204 	addi	sp,sp,8
 80045bc:	f800283a 	ret

080045c0 <strcmp>:
 80045c0:	2144b03a 	or	r2,r4,r5
 80045c4:	108000cc 	andi	r2,r2,3
 80045c8:	1000171e 	bne	r2,zero,8004628 <strcmp+0x68>
 80045cc:	20800017 	ldw	r2,0(r4)
 80045d0:	28c00017 	ldw	r3,0(r5)
 80045d4:	10c0141e 	bne	r2,r3,8004628 <strcmp+0x68>
 80045d8:	027fbff4 	movhi	r9,65279
 80045dc:	4a7fbfc4 	addi	r9,r9,-257
 80045e0:	0086303a 	nor	r3,zero,r2
 80045e4:	02202074 	movhi	r8,32897
 80045e8:	1245883a 	add	r2,r2,r9
 80045ec:	42202004 	addi	r8,r8,-32640
 80045f0:	10c4703a 	and	r2,r2,r3
 80045f4:	1204703a 	and	r2,r2,r8
 80045f8:	10000226 	beq	r2,zero,8004604 <strcmp+0x44>
 80045fc:	00001706 	br	800465c <strcmp+0x9c>
 8004600:	1000161e 	bne	r2,zero,800465c <strcmp+0x9c>
 8004604:	21000104 	addi	r4,r4,4
 8004608:	20c00017 	ldw	r3,0(r4)
 800460c:	29400104 	addi	r5,r5,4
 8004610:	29800017 	ldw	r6,0(r5)
 8004614:	1a4f883a 	add	r7,r3,r9
 8004618:	00c4303a 	nor	r2,zero,r3
 800461c:	3884703a 	and	r2,r7,r2
 8004620:	1204703a 	and	r2,r2,r8
 8004624:	19bff626 	beq	r3,r6,8004600 <__alt_data_end+0xfc004600>
 8004628:	20800007 	ldb	r2,0(r4)
 800462c:	1000051e 	bne	r2,zero,8004644 <strcmp+0x84>
 8004630:	00000606 	br	800464c <strcmp+0x8c>
 8004634:	21000044 	addi	r4,r4,1
 8004638:	20800007 	ldb	r2,0(r4)
 800463c:	29400044 	addi	r5,r5,1
 8004640:	10000226 	beq	r2,zero,800464c <strcmp+0x8c>
 8004644:	28c00007 	ldb	r3,0(r5)
 8004648:	10fffa26 	beq	r2,r3,8004634 <__alt_data_end+0xfc004634>
 800464c:	20800003 	ldbu	r2,0(r4)
 8004650:	28c00003 	ldbu	r3,0(r5)
 8004654:	10c5c83a 	sub	r2,r2,r3
 8004658:	f800283a 	ret
 800465c:	0005883a 	mov	r2,zero
 8004660:	f800283a 	ret

08004664 <strcpy>:
 8004664:	2906b03a 	or	r3,r5,r4
 8004668:	18c000cc 	andi	r3,r3,3
 800466c:	2005883a 	mov	r2,r4
 8004670:	1800161e 	bne	r3,zero,80046cc <strcpy+0x68>
 8004674:	29c00017 	ldw	r7,0(r5)
 8004678:	02ffbff4 	movhi	r11,65279
 800467c:	5affbfc4 	addi	r11,r11,-257
 8004680:	02a02074 	movhi	r10,32897
 8004684:	01c8303a 	nor	r4,zero,r7
 8004688:	3ac7883a 	add	r3,r7,r11
 800468c:	52a02004 	addi	r10,r10,-32640
 8004690:	20c6703a 	and	r3,r4,r3
 8004694:	1a86703a 	and	r3,r3,r10
 8004698:	18000c1e 	bne	r3,zero,80046cc <strcpy+0x68>
 800469c:	1011883a 	mov	r8,r2
 80046a0:	41c00015 	stw	r7,0(r8)
 80046a4:	29400104 	addi	r5,r5,4
 80046a8:	29c00017 	ldw	r7,0(r5)
 80046ac:	41800104 	addi	r6,r8,4
 80046b0:	3011883a 	mov	r8,r6
 80046b4:	01d2303a 	nor	r9,zero,r7
 80046b8:	3ac7883a 	add	r3,r7,r11
 80046bc:	48c6703a 	and	r3,r9,r3
 80046c0:	1a86703a 	and	r3,r3,r10
 80046c4:	183ff626 	beq	r3,zero,80046a0 <__alt_data_end+0xfc0046a0>
 80046c8:	00000106 	br	80046d0 <strcpy+0x6c>
 80046cc:	100d883a 	mov	r6,r2
 80046d0:	28c00003 	ldbu	r3,0(r5)
 80046d4:	31800044 	addi	r6,r6,1
 80046d8:	29400044 	addi	r5,r5,1
 80046dc:	30ffffc5 	stb	r3,-1(r6)
 80046e0:	18c03fcc 	andi	r3,r3,255
 80046e4:	18c0201c 	xori	r3,r3,128
 80046e8:	18ffe004 	addi	r3,r3,-128
 80046ec:	183ff81e 	bne	r3,zero,80046d0 <__alt_data_end+0xfc0046d0>
 80046f0:	f800283a 	ret

080046f4 <strlen>:
 80046f4:	208000cc 	andi	r2,r4,3
 80046f8:	10002026 	beq	r2,zero,800477c <strlen+0x88>
 80046fc:	20800007 	ldb	r2,0(r4)
 8004700:	10002026 	beq	r2,zero,8004784 <strlen+0x90>
 8004704:	2005883a 	mov	r2,r4
 8004708:	00000206 	br	8004714 <strlen+0x20>
 800470c:	10c00007 	ldb	r3,0(r2)
 8004710:	18001826 	beq	r3,zero,8004774 <strlen+0x80>
 8004714:	10800044 	addi	r2,r2,1
 8004718:	10c000cc 	andi	r3,r2,3
 800471c:	183ffb1e 	bne	r3,zero,800470c <__alt_data_end+0xfc00470c>
 8004720:	10c00017 	ldw	r3,0(r2)
 8004724:	01ffbff4 	movhi	r7,65279
 8004728:	39ffbfc4 	addi	r7,r7,-257
 800472c:	00ca303a 	nor	r5,zero,r3
 8004730:	01a02074 	movhi	r6,32897
 8004734:	19c7883a 	add	r3,r3,r7
 8004738:	31a02004 	addi	r6,r6,-32640
 800473c:	1946703a 	and	r3,r3,r5
 8004740:	1986703a 	and	r3,r3,r6
 8004744:	1800091e 	bne	r3,zero,800476c <strlen+0x78>
 8004748:	10800104 	addi	r2,r2,4
 800474c:	10c00017 	ldw	r3,0(r2)
 8004750:	19cb883a 	add	r5,r3,r7
 8004754:	00c6303a 	nor	r3,zero,r3
 8004758:	28c6703a 	and	r3,r5,r3
 800475c:	1986703a 	and	r3,r3,r6
 8004760:	183ff926 	beq	r3,zero,8004748 <__alt_data_end+0xfc004748>
 8004764:	00000106 	br	800476c <strlen+0x78>
 8004768:	10800044 	addi	r2,r2,1
 800476c:	10c00007 	ldb	r3,0(r2)
 8004770:	183ffd1e 	bne	r3,zero,8004768 <__alt_data_end+0xfc004768>
 8004774:	1105c83a 	sub	r2,r2,r4
 8004778:	f800283a 	ret
 800477c:	2005883a 	mov	r2,r4
 8004780:	003fe706 	br	8004720 <__alt_data_end+0xfc004720>
 8004784:	0005883a 	mov	r2,zero
 8004788:	f800283a 	ret

0800478c <_strtod_r>:
 800478c:	deffe104 	addi	sp,sp,-124
 8004790:	dd801b15 	stw	r22,108(sp)
 8004794:	dc001515 	stw	r16,84(sp)
 8004798:	d9400615 	stw	r5,24(sp)
 800479c:	dfc01e15 	stw	ra,120(sp)
 80047a0:	df001d15 	stw	fp,116(sp)
 80047a4:	ddc01c15 	stw	r23,112(sp)
 80047a8:	dd401a15 	stw	r21,104(sp)
 80047ac:	dd001915 	stw	r20,100(sp)
 80047b0:	dcc01815 	stw	r19,96(sp)
 80047b4:	dc801715 	stw	r18,92(sp)
 80047b8:	dc401615 	stw	r17,88(sp)
 80047bc:	2021883a 	mov	r16,r4
 80047c0:	2809883a 	mov	r4,r5
 80047c4:	20800003 	ldbu	r2,0(r4)
 80047c8:	01c20034 	movhi	r7,2048
 80047cc:	282d883a 	mov	r22,r5
 80047d0:	d9800c15 	stw	r6,48(sp)
 80047d4:	d8000815 	stw	zero,32(sp)
 80047d8:	d8000715 	stw	zero,28(sp)
 80047dc:	01400b44 	movi	r5,45
 80047e0:	10c03fcc 	andi	r3,r2,255
 80047e4:	39d1ff04 	addi	r7,r7,18428
 80047e8:	28c0bc36 	bltu	r5,r3,8004adc <_strtod_r+0x350>
 80047ec:	180690ba 	slli	r3,r3,2
 80047f0:	19c7883a 	add	r3,r3,r7
 80047f4:	18c00017 	ldw	r3,0(r3)
 80047f8:	1800683a 	jmp	r3
 80047fc:	080048bc 	xorhi	zero,at,290
 8004800:	08004adc 	xori	zero,at,299
 8004804:	08004adc 	xori	zero,at,299
 8004808:	08004adc 	xori	zero,at,299
 800480c:	08004adc 	xori	zero,at,299
 8004810:	08004adc 	xori	zero,at,299
 8004814:	08004adc 	xori	zero,at,299
 8004818:	08004adc 	xori	zero,at,299
 800481c:	08004adc 	xori	zero,at,299
 8004820:	08004ac8 	cmpgei	zero,at,299
 8004824:	08004ac8 	cmpgei	zero,at,299
 8004828:	08004ac8 	cmpgei	zero,at,299
 800482c:	08004ac8 	cmpgei	zero,at,299
 8004830:	08004ac8 	cmpgei	zero,at,299
 8004834:	08004adc 	xori	zero,at,299
 8004838:	08004adc 	xori	zero,at,299
 800483c:	08004adc 	xori	zero,at,299
 8004840:	08004adc 	xori	zero,at,299
 8004844:	08004adc 	xori	zero,at,299
 8004848:	08004adc 	xori	zero,at,299
 800484c:	08004adc 	xori	zero,at,299
 8004850:	08004adc 	xori	zero,at,299
 8004854:	08004adc 	xori	zero,at,299
 8004858:	08004adc 	xori	zero,at,299
 800485c:	08004adc 	xori	zero,at,299
 8004860:	08004adc 	xori	zero,at,299
 8004864:	08004adc 	xori	zero,at,299
 8004868:	08004adc 	xori	zero,at,299
 800486c:	08004adc 	xori	zero,at,299
 8004870:	08004adc 	xori	zero,at,299
 8004874:	08004adc 	xori	zero,at,299
 8004878:	08004adc 	xori	zero,at,299
 800487c:	08004ac8 	cmpgei	zero,at,299
 8004880:	08004adc 	xori	zero,at,299
 8004884:	08004adc 	xori	zero,at,299
 8004888:	08004adc 	xori	zero,at,299
 800488c:	08004adc 	xori	zero,at,299
 8004890:	08004adc 	xori	zero,at,299
 8004894:	08004adc 	xori	zero,at,299
 8004898:	08004adc 	xori	zero,at,299
 800489c:	08004adc 	xori	zero,at,299
 80048a0:	08004adc 	xori	zero,at,299
 80048a4:	08004adc 	xori	zero,at,299
 80048a8:	0800491c 	xori	zero,at,292
 80048ac:	08004adc 	xori	zero,at,299
 80048b0:	08004abc 	xorhi	zero,at,298
 80048b4:	00801244 	movi	r2,73
 80048b8:	98849c26 	beq	r19,r2,8005b2c <_strtod_r+0x13a0>
 80048bc:	002b883a 	mov	r21,zero
 80048c0:	0023883a 	mov	r17,zero
 80048c4:	d8800c17 	ldw	r2,48(sp)
 80048c8:	10000626 	beq	r2,zero,80048e4 <_strtod_r+0x158>
 80048cc:	d8001015 	stw	zero,64(sp)
 80048d0:	d8800c17 	ldw	r2,48(sp)
 80048d4:	15800015 	stw	r22,0(r2)
 80048d8:	d8c01017 	ldw	r3,64(sp)
 80048dc:	18000126 	beq	r3,zero,80048e4 <_strtod_r+0x158>
 80048e0:	8c60003c 	xorhi	r17,r17,32768
 80048e4:	a805883a 	mov	r2,r21
 80048e8:	8807883a 	mov	r3,r17
 80048ec:	dfc01e17 	ldw	ra,120(sp)
 80048f0:	df001d17 	ldw	fp,116(sp)
 80048f4:	ddc01c17 	ldw	r23,112(sp)
 80048f8:	dd801b17 	ldw	r22,108(sp)
 80048fc:	dd401a17 	ldw	r21,104(sp)
 8004900:	dd001917 	ldw	r20,100(sp)
 8004904:	dcc01817 	ldw	r19,96(sp)
 8004908:	dc801717 	ldw	r18,92(sp)
 800490c:	dc401617 	ldw	r17,88(sp)
 8004910:	dc001517 	ldw	r16,84(sp)
 8004914:	dec01f04 	addi	sp,sp,124
 8004918:	f800283a 	ret
 800491c:	d8001015 	stw	zero,64(sp)
 8004920:	24800044 	addi	r18,r4,1
 8004924:	dc800615 	stw	r18,24(sp)
 8004928:	20800043 	ldbu	r2,1(r4)
 800492c:	10c03fcc 	andi	r3,r2,255
 8004930:	18c0201c 	xori	r3,r3,128
 8004934:	18ffe004 	addi	r3,r3,-128
 8004938:	183fe026 	beq	r3,zero,80048bc <__alt_data_end+0xfc0048bc>
 800493c:	11403fcc 	andi	r5,r2,255
 8004940:	2940201c 	xori	r5,r5,128
 8004944:	297fe004 	addi	r5,r5,-128
 8004948:	00c00c04 	movi	r3,48
 800494c:	28c0f226 	beq	r5,r3,8004d18 <_strtod_r+0x58c>
 8004950:	0023883a 	mov	r17,zero
 8004954:	10fff404 	addi	r3,r2,-48
 8004958:	18c03fcc 	andi	r3,r3,255
 800495c:	01800244 	movi	r6,9
 8004960:	30c3d336 	bltu	r6,r3,80058b0 <_strtod_r+0x1124>
 8004964:	91000044 	addi	r4,r18,1
 8004968:	002b883a 	mov	r21,zero
 800496c:	002f883a 	mov	r23,zero
 8004970:	0029883a 	mov	r20,zero
 8004974:	02000204 	movi	r8,8
 8004978:	024003c4 	movi	r9,15
 800497c:	45005a16 	blt	r8,r20,8004ae8 <_strtod_r+0x35c>
 8004980:	bdc002a4 	muli	r23,r23,10
 8004984:	10803fcc 	andi	r2,r2,255
 8004988:	1080201c 	xori	r2,r2,128
 800498c:	10bfe004 	addi	r2,r2,-128
 8004990:	b885883a 	add	r2,r23,r2
 8004994:	15fff404 	addi	r23,r2,-48
 8004998:	d9000615 	stw	r4,24(sp)
 800499c:	20800003 	ldbu	r2,0(r4)
 80049a0:	2039883a 	mov	fp,r4
 80049a4:	a5000044 	addi	r20,r20,1
 80049a8:	10fff404 	addi	r3,r2,-48
 80049ac:	18c03fcc 	andi	r3,r3,255
 80049b0:	21000044 	addi	r4,r4,1
 80049b4:	30fff12e 	bgeu	r6,r3,800497c <__alt_data_end+0xfc00497c>
 80049b8:	14c03fcc 	andi	r19,r2,255
 80049bc:	9cc0201c 	xori	r19,r19,128
 80049c0:	9cffe004 	addi	r19,r19,-128
 80049c4:	8009883a 	mov	r4,r16
 80049c8:	800d1b00 	call	800d1b0 <_localeconv_r>
 80049cc:	11400017 	ldw	r5,0(r2)
 80049d0:	8009883a 	mov	r4,r16
 80049d4:	d9401315 	stw	r5,76(sp)
 80049d8:	800d1b00 	call	800d1b0 <_localeconv_r>
 80049dc:	11000017 	ldw	r4,0(r2)
 80049e0:	80046f40 	call	80046f4 <strlen>
 80049e4:	d9401317 	ldw	r5,76(sp)
 80049e8:	e009883a 	mov	r4,fp
 80049ec:	100d883a 	mov	r6,r2
 80049f0:	800e9840 	call	800e984 <strncmp>
 80049f4:	1000d926 	beq	r2,zero,8004d5c <_strtod_r+0x5d0>
 80049f8:	a039883a 	mov	fp,r20
 80049fc:	000b883a 	mov	r5,zero
 8004a00:	0011883a 	mov	r8,zero
 8004a04:	0013883a 	mov	r9,zero
 8004a08:	00801944 	movi	r2,101
 8004a0c:	98804426 	beq	r19,r2,8004b20 <_strtod_r+0x394>
 8004a10:	00801144 	movi	r2,69
 8004a14:	98804226 	beq	r19,r2,8004b20 <_strtod_r+0x394>
 8004a18:	000f883a 	mov	r7,zero
 8004a1c:	e0007f1e 	bne	fp,zero,8004c1c <_strtod_r+0x490>
 8004a20:	2800391e 	bne	r5,zero,8004b08 <_strtod_r+0x37c>
 8004a24:	8800381e 	bne	r17,zero,8004b08 <_strtod_r+0x37c>
 8004a28:	4800b71e 	bne	r9,zero,8004d08 <_strtod_r+0x57c>
 8004a2c:	00801384 	movi	r2,78
 8004a30:	98800526 	beq	r19,r2,8004a48 <_strtod_r+0x2bc>
 8004a34:	14ff9f0e 	bge	r2,r19,80048b4 <__alt_data_end+0xfc0048b4>
 8004a38:	00801a44 	movi	r2,105
 8004a3c:	98843b26 	beq	r19,r2,8005b2c <_strtod_r+0x13a0>
 8004a40:	00801b84 	movi	r2,110
 8004a44:	98bf9d1e 	bne	r19,r2,80048bc <__alt_data_end+0xfc0048bc>
 8004a48:	014200b4 	movhi	r5,2050
 8004a4c:	d9000617 	ldw	r4,24(sp)
 8004a50:	29458304 	addi	r5,r5,5644
 8004a54:	01c00644 	movi	r7,25
 8004a58:	00000b06 	br	8004a88 <_strtod_r+0x2fc>
 8004a5c:	21000044 	addi	r4,r4,1
 8004a60:	20800003 	ldbu	r2,0(r4)
 8004a64:	10ffefc4 	addi	r3,r2,-65
 8004a68:	10803fcc 	andi	r2,r2,255
 8004a6c:	1080201c 	xori	r2,r2,128
 8004a70:	18c03fcc 	andi	r3,r3,255
 8004a74:	10bfe004 	addi	r2,r2,-128
 8004a78:	38c00136 	bltu	r7,r3,8004a80 <_strtod_r+0x2f4>
 8004a7c:	10800804 	addi	r2,r2,32
 8004a80:	29400044 	addi	r5,r5,1
 8004a84:	11bf8d1e 	bne	r2,r6,80048bc <__alt_data_end+0xfc0048bc>
 8004a88:	29800007 	ldb	r6,0(r5)
 8004a8c:	303ff31e 	bne	r6,zero,8004a5c <__alt_data_end+0xfc004a5c>
 8004a90:	20800044 	addi	r2,r4,1
 8004a94:	d8800615 	stw	r2,24(sp)
 8004a98:	20c00047 	ldb	r3,1(r4)
 8004a9c:	00800a04 	movi	r2,40
 8004aa0:	18846d26 	beq	r3,r2,8005c58 <_strtod_r+0x14cc>
 8004aa4:	013ffe34 	movhi	r4,65528
 8004aa8:	d9000715 	stw	r4,28(sp)
 8004aac:	d8000815 	stw	zero,32(sp)
 8004ab0:	dd400817 	ldw	r21,32(sp)
 8004ab4:	dc400717 	ldw	r17,28(sp)
 8004ab8:	00001506 	br	8004b10 <_strtod_r+0x384>
 8004abc:	00800044 	movi	r2,1
 8004ac0:	d8801015 	stw	r2,64(sp)
 8004ac4:	003f9606 	br	8004920 <__alt_data_end+0xfc004920>
 8004ac8:	21000044 	addi	r4,r4,1
 8004acc:	d9000615 	stw	r4,24(sp)
 8004ad0:	20800003 	ldbu	r2,0(r4)
 8004ad4:	10c03fcc 	andi	r3,r2,255
 8004ad8:	28ff442e 	bgeu	r5,r3,80047ec <__alt_data_end+0xfc0047ec>
 8004adc:	2025883a 	mov	r18,r4
 8004ae0:	d8001015 	stw	zero,64(sp)
 8004ae4:	003f9506 	br	800493c <__alt_data_end+0xfc00493c>
 8004ae8:	4d3fab16 	blt	r9,r20,8004998 <__alt_data_end+0xfc004998>
 8004aec:	ad4002a4 	muli	r21,r21,10
 8004af0:	10c03fcc 	andi	r3,r2,255
 8004af4:	18c0201c 	xori	r3,r3,128
 8004af8:	18ffe004 	addi	r3,r3,-128
 8004afc:	a8eb883a 	add	r21,r21,r3
 8004b00:	ad7ff404 	addi	r21,r21,-48
 8004b04:	003fa406 	br	8004998 <__alt_data_end+0xfc004998>
 8004b08:	002b883a 	mov	r21,zero
 8004b0c:	0023883a 	mov	r17,zero
 8004b10:	d9000c17 	ldw	r4,48(sp)
 8004b14:	203f7026 	beq	r4,zero,80048d8 <__alt_data_end+0xfc0048d8>
 8004b18:	dd800617 	ldw	r22,24(sp)
 8004b1c:	003f6c06 	br	80048d0 <__alt_data_end+0xfc0048d0>
 8004b20:	e0007726 	beq	fp,zero,8004d00 <_strtod_r+0x574>
 8004b24:	dd800617 	ldw	r22,24(sp)
 8004b28:	00c00ac4 	movi	r3,43
 8004b2c:	b0800044 	addi	r2,r22,1
 8004b30:	d8800615 	stw	r2,24(sp)
 8004b34:	b0800047 	ldb	r2,1(r22)
 8004b38:	10c25726 	beq	r2,r3,8005498 <_strtod_r+0xd0c>
 8004b3c:	00c00b44 	movi	r3,45
 8004b40:	10c25026 	beq	r2,r3,8005484 <_strtod_r+0xcf8>
 8004b44:	1027883a 	mov	r19,r2
 8004b48:	000f883a 	mov	r7,zero
 8004b4c:	98fff404 	addi	r3,r19,-48
 8004b50:	01000244 	movi	r4,9
 8004b54:	9805883a 	mov	r2,r19
 8004b58:	20c23836 	bltu	r4,r3,800543c <_strtod_r+0xcb0>
 8004b5c:	00c00c04 	movi	r3,48
 8004b60:	98c0071e 	bne	r19,r3,8004b80 <_strtod_r+0x3f4>
 8004b64:	d8c00617 	ldw	r3,24(sp)
 8004b68:	18c00044 	addi	r3,r3,1
 8004b6c:	d8c00615 	stw	r3,24(sp)
 8004b70:	18800007 	ldb	r2,0(r3)
 8004b74:	18c00044 	addi	r3,r3,1
 8004b78:	14fffc26 	beq	r2,r19,8004b6c <__alt_data_end+0xfc004b6c>
 8004b7c:	1027883a 	mov	r19,r2
 8004b80:	10bff3c4 	addi	r2,r2,-49
 8004b84:	00c00204 	movi	r3,8
 8004b88:	18bfa336 	bltu	r3,r2,8004a18 <__alt_data_end+0xfc004a18>
 8004b8c:	db000617 	ldw	r12,24(sp)
 8004b90:	98bff404 	addi	r2,r19,-48
 8004b94:	02c00244 	movi	r11,9
 8004b98:	62800044 	addi	r10,r12,1
 8004b9c:	da800615 	stw	r10,24(sp)
 8004ba0:	64c00043 	ldbu	r19,1(r12)
 8004ba4:	98fff404 	addi	r3,r19,-48
 8004ba8:	9cc03fcc 	andi	r19,r19,255
 8004bac:	9cc0201c 	xori	r19,r19,128
 8004bb0:	18c03fcc 	andi	r3,r3,255
 8004bb4:	9cffe004 	addi	r19,r19,-128
 8004bb8:	58c00e36 	bltu	r11,r3,8004bf4 <_strtod_r+0x468>
 8004bbc:	61000084 	addi	r4,r12,2
 8004bc0:	d9000615 	stw	r4,24(sp)
 8004bc4:	108002a4 	muli	r2,r2,10
 8004bc8:	21800003 	ldbu	r6,0(r4)
 8004bcc:	2015883a 	mov	r10,r4
 8004bd0:	14e7883a 	add	r19,r2,r19
 8004bd4:	30fff404 	addi	r3,r6,-48
 8004bd8:	98bff404 	addi	r2,r19,-48
 8004bdc:	34c03fcc 	andi	r19,r6,255
 8004be0:	9cc0201c 	xori	r19,r19,128
 8004be4:	18c03fcc 	andi	r3,r3,255
 8004be8:	9cffe004 	addi	r19,r19,-128
 8004bec:	21000044 	addi	r4,r4,1
 8004bf0:	58fff32e 	bgeu	r11,r3,8004bc0 <__alt_data_end+0xfc004bc0>
 8004bf4:	5315c83a 	sub	r10,r10,r12
 8004bf8:	00c00204 	movi	r3,8
 8004bfc:	1a832a16 	blt	r3,r10,80058a8 <_strtod_r+0x111c>
 8004c00:	00d387c4 	movi	r3,19999
 8004c04:	1880010e 	bge	r3,r2,8004c0c <_strtod_r+0x480>
 8004c08:	1805883a 	mov	r2,r3
 8004c0c:	01c7c83a 	sub	r3,zero,r7
 8004c10:	10c4f03a 	xor	r2,r2,r3
 8004c14:	11cf883a 	add	r7,r2,r7
 8004c18:	e03f8126 	beq	fp,zero,8004a20 <__alt_data_end+0xfc004a20>
 8004c1c:	3a11c83a 	sub	r8,r7,r8
 8004c20:	da000e15 	stw	r8,56(sp)
 8004c24:	a000011e 	bne	r20,zero,8004c2c <_strtod_r+0x4a0>
 8004c28:	e029883a 	mov	r20,fp
 8004c2c:	00800404 	movi	r2,16
 8004c30:	e023883a 	mov	r17,fp
 8004c34:	1700010e 	bge	r2,fp,8004c3c <_strtod_r+0x4b0>
 8004c38:	1023883a 	mov	r17,r2
 8004c3c:	b809883a 	mov	r4,r23
 8004c40:	8013e9c0 	call	8013e9c <__floatunsidf>
 8004c44:	d8800815 	stw	r2,32(sp)
 8004c48:	d8c00715 	stw	r3,28(sp)
 8004c4c:	00800244 	movi	r2,9
 8004c50:	1440150e 	bge	r2,r17,8004ca8 <_strtod_r+0x51c>
 8004c54:	88bffdc4 	addi	r2,r17,-9
 8004c58:	100490fa 	slli	r2,r2,3
 8004c5c:	180b883a 	mov	r5,r3
 8004c60:	00c200b4 	movhi	r3,2050
 8004c64:	18c5d504 	addi	r3,r3,5972
 8004c68:	1885883a 	add	r2,r3,r2
 8004c6c:	d9000817 	ldw	r4,32(sp)
 8004c70:	11800017 	ldw	r6,0(r2)
 8004c74:	11c00117 	ldw	r7,4(r2)
 8004c78:	80031b40 	call	80031b4 <__muldf3>
 8004c7c:	a809883a 	mov	r4,r21
 8004c80:	102d883a 	mov	r22,r2
 8004c84:	1827883a 	mov	r19,r3
 8004c88:	8013e9c0 	call	8013e9c <__floatunsidf>
 8004c8c:	b009883a 	mov	r4,r22
 8004c90:	980b883a 	mov	r5,r19
 8004c94:	100d883a 	mov	r6,r2
 8004c98:	180f883a 	mov	r7,r3
 8004c9c:	800204c0 	call	800204c <__adddf3>
 8004ca0:	d8800815 	stw	r2,32(sp)
 8004ca4:	d8c00715 	stw	r3,28(sp)
 8004ca8:	008003c4 	movi	r2,15
 8004cac:	17004916 	blt	r2,fp,8004dd4 <_strtod_r+0x648>
 8004cb0:	d8c00e17 	ldw	r3,56(sp)
 8004cb4:	183f7e26 	beq	r3,zero,8004ab0 <__alt_data_end+0xfc004ab0>
 8004cb8:	d9000e17 	ldw	r4,56(sp)
 8004cbc:	0103730e 	bge	zero,r4,8005a8c <_strtod_r+0x1300>
 8004cc0:	00c00584 	movi	r3,22
 8004cc4:	19030216 	blt	r3,r4,80058d0 <_strtod_r+0x1144>
 8004cc8:	200490fa 	slli	r2,r4,3
 8004ccc:	00c200b4 	movhi	r3,2050
 8004cd0:	18c5d504 	addi	r3,r3,5972
 8004cd4:	1885883a 	add	r2,r3,r2
 8004cd8:	d9800817 	ldw	r6,32(sp)
 8004cdc:	d9c00717 	ldw	r7,28(sp)
 8004ce0:	11000017 	ldw	r4,0(r2)
 8004ce4:	11400117 	ldw	r5,4(r2)
 8004ce8:	80031b40 	call	80031b4 <__muldf3>
 8004cec:	102b883a 	mov	r21,r2
 8004cf0:	1823883a 	mov	r17,r3
 8004cf4:	003f8606 	br	8004b10 <__alt_data_end+0xfc004b10>
 8004cf8:	0011883a 	mov	r8,zero
 8004cfc:	02400044 	movi	r9,1
 8004d00:	2800031e 	bne	r5,zero,8004d10 <_strtod_r+0x584>
 8004d04:	8800021e 	bne	r17,zero,8004d10 <_strtod_r+0x584>
 8004d08:	002b883a 	mov	r21,zero
 8004d0c:	003eed06 	br	80048c4 <__alt_data_end+0xfc0048c4>
 8004d10:	0039883a 	mov	fp,zero
 8004d14:	003f8306 	br	8004b24 <__alt_data_end+0xfc004b24>
 8004d18:	90800047 	ldb	r2,1(r18)
 8004d1c:	00c01604 	movi	r3,88
 8004d20:	10c21d26 	beq	r2,r3,8005598 <_strtod_r+0xe0c>
 8004d24:	00c01e04 	movi	r3,120
 8004d28:	10c21b26 	beq	r2,r3,8005598 <_strtod_r+0xe0c>
 8004d2c:	90c00044 	addi	r3,r18,1
 8004d30:	1825883a 	mov	r18,r3
 8004d34:	d8c00615 	stw	r3,24(sp)
 8004d38:	18c00044 	addi	r3,r3,1
 8004d3c:	18bfffc3 	ldbu	r2,-1(r3)
 8004d40:	11003fcc 	andi	r4,r2,255
 8004d44:	2100201c 	xori	r4,r4,128
 8004d48:	213fe004 	addi	r4,r4,-128
 8004d4c:	217ff826 	beq	r4,r5,8004d30 <__alt_data_end+0xfc004d30>
 8004d50:	203f6d26 	beq	r4,zero,8004b08 <__alt_data_end+0xfc004b08>
 8004d54:	04400044 	movi	r17,1
 8004d58:	003efe06 	br	8004954 <__alt_data_end+0xfc004954>
 8004d5c:	8009883a 	mov	r4,r16
 8004d60:	800d1b00 	call	800d1b0 <_localeconv_r>
 8004d64:	11000017 	ldw	r4,0(r2)
 8004d68:	80046f40 	call	80046f4 <strlen>
 8004d6c:	d9000617 	ldw	r4,24(sp)
 8004d70:	2085883a 	add	r2,r4,r2
 8004d74:	d8800615 	stw	r2,24(sp)
 8004d78:	14c00007 	ldb	r19,0(r2)
 8004d7c:	a001b21e 	bne	r20,zero,8005448 <_strtod_r+0xcbc>
 8004d80:	00c00c04 	movi	r3,48
 8004d84:	98c3931e 	bne	r19,r3,8005bd4 <_strtod_r+0x1448>
 8004d88:	10c00044 	addi	r3,r2,1
 8004d8c:	9809883a 	mov	r4,r19
 8004d90:	d8c00615 	stw	r3,24(sp)
 8004d94:	1cc00007 	ldb	r19,0(r3)
 8004d98:	188bc83a 	sub	r5,r3,r2
 8004d9c:	18c00044 	addi	r3,r3,1
 8004da0:	993ffb26 	beq	r19,r4,8004d90 <__alt_data_end+0xfc004d90>
 8004da4:	98bff3c4 	addi	r2,r19,-49
 8004da8:	00c00204 	movi	r3,8
 8004dac:	1881ee36 	bltu	r3,r2,8005568 <_strtod_r+0xddc>
 8004db0:	dc800617 	ldw	r18,24(sp)
 8004db4:	9cfff404 	addi	r19,r19,-48
 8004db8:	2a000044 	addi	r8,r5,1
 8004dbc:	9009883a 	mov	r4,r18
 8004dc0:	07000044 	movi	fp,1
 8004dc4:	b88002a4 	muli	r2,r23,10
 8004dc8:	000b883a 	mov	r5,zero
 8004dcc:	98af883a 	add	r23,r19,r2
 8004dd0:	0001a806 	br	8005474 <_strtod_r+0xce8>
 8004dd4:	d9000e17 	ldw	r4,56(sp)
 8004dd8:	e463c83a 	sub	r17,fp,r17
 8004ddc:	2463883a 	add	r17,r4,r17
 8004de0:	0442670e 	bge	zero,r17,8005780 <_strtod_r+0xff4>
 8004de4:	888003cc 	andi	r2,r17,15
 8004de8:	10000b26 	beq	r2,zero,8004e18 <_strtod_r+0x68c>
 8004dec:	100490fa 	slli	r2,r2,3
 8004df0:	00c200b4 	movhi	r3,2050
 8004df4:	18c5d504 	addi	r3,r3,5972
 8004df8:	1885883a 	add	r2,r3,r2
 8004dfc:	d9800817 	ldw	r6,32(sp)
 8004e00:	d9c00717 	ldw	r7,28(sp)
 8004e04:	11000017 	ldw	r4,0(r2)
 8004e08:	11400117 	ldw	r5,4(r2)
 8004e0c:	80031b40 	call	80031b4 <__muldf3>
 8004e10:	d8800815 	stw	r2,32(sp)
 8004e14:	d8c00715 	stw	r3,28(sp)
 8004e18:	04fffc04 	movi	r19,-16
 8004e1c:	8ce2703a 	and	r17,r17,r19
 8004e20:	8801a11e 	bne	r17,zero,80054a8 <_strtod_r+0xd1c>
 8004e24:	dd400817 	ldw	r21,32(sp)
 8004e28:	dc400717 	ldw	r17,28(sp)
 8004e2c:	d8001215 	stw	zero,72(sp)
 8004e30:	8009883a 	mov	r4,r16
 8004e34:	ddc00015 	stw	r23,0(sp)
 8004e38:	900b883a 	mov	r5,r18
 8004e3c:	a00d883a 	mov	r6,r20
 8004e40:	e00f883a 	mov	r7,fp
 8004e44:	800d8c40 	call	800d8c4 <__s2b>
 8004e48:	d8800d15 	stw	r2,52(sp)
 8004e4c:	d8800e17 	ldw	r2,56(sp)
 8004e50:	d9000d17 	ldw	r4,52(sp)
 8004e54:	dd801217 	ldw	r22,72(sp)
 8004e58:	1007d7fa 	srai	r3,r2,31
 8004e5c:	0085c83a 	sub	r2,zero,r2
 8004e60:	21000304 	addi	r4,r4,12
 8004e64:	1886703a 	and	r3,r3,r2
 8004e68:	d9001115 	stw	r4,68(sp)
 8004e6c:	d8c00915 	stw	r3,36(sp)
 8004e70:	d8800d17 	ldw	r2,52(sp)
 8004e74:	8009883a 	mov	r4,r16
 8004e78:	0029883a 	mov	r20,zero
 8004e7c:	11400117 	ldw	r5,4(r2)
 8004e80:	800d6e00 	call	800d6e0 <_Balloc>
 8004e84:	d8c00d17 	ldw	r3,52(sp)
 8004e88:	d9401117 	ldw	r5,68(sp)
 8004e8c:	11000304 	addi	r4,r2,12
 8004e90:	19800417 	ldw	r6,16(r3)
 8004e94:	1027883a 	mov	r19,r2
 8004e98:	31800084 	addi	r6,r6,2
 8004e9c:	318d883a 	add	r6,r6,r6
 8004ea0:	318d883a 	add	r6,r6,r6
 8004ea4:	800d4840 	call	800d484 <memcpy>
 8004ea8:	d8800204 	addi	r2,sp,8
 8004eac:	8009883a 	mov	r4,r16
 8004eb0:	a80b883a 	mov	r5,r21
 8004eb4:	880d883a 	mov	r6,r17
 8004eb8:	d9c00404 	addi	r7,sp,16
 8004ebc:	d8800015 	stw	r2,0(sp)
 8004ec0:	800e3140 	call	800e314 <__d2b>
 8004ec4:	8009883a 	mov	r4,r16
 8004ec8:	01400044 	movi	r5,1
 8004ecc:	d8800515 	stw	r2,20(sp)
 8004ed0:	800dae00 	call	800dae0 <__i2b>
 8004ed4:	d8c00e17 	ldw	r3,56(sp)
 8004ed8:	1025883a 	mov	r18,r2
 8004edc:	00c0010e 	bge	zero,r3,8004ee4 <_strtod_r+0x758>
 8004ee0:	1829883a 	mov	r20,r3
 8004ee4:	d8800417 	ldw	r2,16(sp)
 8004ee8:	1000dc16 	blt	r2,zero,800525c <_strtod_r+0xad0>
 8004eec:	d9000917 	ldw	r4,36(sp)
 8004ef0:	a02f883a 	mov	r23,r20
 8004ef4:	20b9883a 	add	fp,r4,r2
 8004ef8:	d9000217 	ldw	r4,8(sp)
 8004efc:	1585c83a 	sub	r2,r2,r22
 8004f00:	00ff00c4 	movi	r3,-1021
 8004f04:	110b883a 	add	r5,r2,r4
 8004f08:	28c09e0e 	bge	r5,r3,8005184 <_strtod_r+0x9f8>
 8004f0c:	10810cc4 	addi	r2,r2,1075
 8004f10:	e087883a 	add	r3,fp,r2
 8004f14:	b885883a 	add	r2,r23,r2
 8004f18:	15af883a 	add	r23,r2,r22
 8004f1c:	1805883a 	mov	r2,r3
 8004f20:	e0c0010e 	bge	fp,r3,8004f28 <_strtod_r+0x79c>
 8004f24:	e005883a 	mov	r2,fp
 8004f28:	b880010e 	bge	r23,r2,8004f30 <_strtod_r+0x7a4>
 8004f2c:	b805883a 	mov	r2,r23
 8004f30:	0080030e 	bge	zero,r2,8004f40 <_strtod_r+0x7b4>
 8004f34:	1887c83a 	sub	r3,r3,r2
 8004f38:	b8afc83a 	sub	r23,r23,r2
 8004f3c:	e0b9c83a 	sub	fp,fp,r2
 8004f40:	d8800917 	ldw	r2,36(sp)
 8004f44:	10001126 	beq	r2,zero,8004f8c <_strtod_r+0x800>
 8004f48:	900b883a 	mov	r5,r18
 8004f4c:	100d883a 	mov	r6,r2
 8004f50:	8009883a 	mov	r4,r16
 8004f54:	d8c01415 	stw	r3,80(sp)
 8004f58:	800dd180 	call	800dd18 <__pow5mult>
 8004f5c:	d9800517 	ldw	r6,20(sp)
 8004f60:	8009883a 	mov	r4,r16
 8004f64:	100b883a 	mov	r5,r2
 8004f68:	1025883a 	mov	r18,r2
 8004f6c:	800db1c0 	call	800db1c <__multiply>
 8004f70:	d9400517 	ldw	r5,20(sp)
 8004f74:	8009883a 	mov	r4,r16
 8004f78:	d8801315 	stw	r2,76(sp)
 8004f7c:	800d7880 	call	800d788 <_Bfree>
 8004f80:	d8801317 	ldw	r2,76(sp)
 8004f84:	d8c01417 	ldw	r3,80(sp)
 8004f88:	d8800515 	stw	r2,20(sp)
 8004f8c:	00c0050e 	bge	zero,r3,8004fa4 <_strtod_r+0x818>
 8004f90:	d9400517 	ldw	r5,20(sp)
 8004f94:	8009883a 	mov	r4,r16
 8004f98:	180d883a 	mov	r6,r3
 8004f9c:	800de580 	call	800de58 <__lshift>
 8004fa0:	d8800515 	stw	r2,20(sp)
 8004fa4:	a0000526 	beq	r20,zero,8004fbc <_strtod_r+0x830>
 8004fa8:	980b883a 	mov	r5,r19
 8004fac:	8009883a 	mov	r4,r16
 8004fb0:	a00d883a 	mov	r6,r20
 8004fb4:	800dd180 	call	800dd18 <__pow5mult>
 8004fb8:	1027883a 	mov	r19,r2
 8004fbc:	05c0050e 	bge	zero,r23,8004fd4 <_strtod_r+0x848>
 8004fc0:	980b883a 	mov	r5,r19
 8004fc4:	8009883a 	mov	r4,r16
 8004fc8:	b80d883a 	mov	r6,r23
 8004fcc:	800de580 	call	800de58 <__lshift>
 8004fd0:	1027883a 	mov	r19,r2
 8004fd4:	0700050e 	bge	zero,fp,8004fec <_strtod_r+0x860>
 8004fd8:	900b883a 	mov	r5,r18
 8004fdc:	8009883a 	mov	r4,r16
 8004fe0:	e00d883a 	mov	r6,fp
 8004fe4:	800de580 	call	800de58 <__lshift>
 8004fe8:	1025883a 	mov	r18,r2
 8004fec:	d9400517 	ldw	r5,20(sp)
 8004ff0:	8009883a 	mov	r4,r16
 8004ff4:	980d883a 	mov	r6,r19
 8004ff8:	800e0000 	call	800e000 <__mdiff>
 8004ffc:	10c00317 	ldw	r3,12(r2)
 8005000:	1009883a 	mov	r4,r2
 8005004:	10000315 	stw	zero,12(r2)
 8005008:	900b883a 	mov	r5,r18
 800500c:	1029883a 	mov	r20,r2
 8005010:	d8c00b15 	stw	r3,44(sp)
 8005014:	800dfa00 	call	800dfa0 <__mcmp>
 8005018:	10017316 	blt	r2,zero,80055e8 <_strtod_r+0xe5c>
 800501c:	1001b526 	beq	r2,zero,80056f4 <_strtod_r+0xf68>
 8005020:	a009883a 	mov	r4,r20
 8005024:	900b883a 	mov	r5,r18
 8005028:	800e4500 	call	800e450 <__ratio>
 800502c:	1009883a 	mov	r4,r2
 8005030:	180b883a 	mov	r5,r3
 8005034:	000d883a 	mov	r6,zero
 8005038:	01d00034 	movhi	r7,16384
 800503c:	182f883a 	mov	r23,r3
 8005040:	d8801315 	stw	r2,76(sp)
 8005044:	80134ec0 	call	80134ec <__ledf2>
 8005048:	da001317 	ldw	r8,76(sp)
 800504c:	00805016 	blt	zero,r2,8005190 <_strtod_r+0xa04>
 8005050:	d9000b17 	ldw	r4,44(sp)
 8005054:	20008426 	beq	r4,zero,8005268 <_strtod_r+0xadc>
 8005058:	05cffc34 	movhi	r23,16368
 800505c:	0039883a 	mov	fp,zero
 8005060:	d8000f15 	stw	zero,60(sp)
 8005064:	ddc00a15 	stw	r23,40(sp)
 8005068:	d8800717 	ldw	r2,28(sp)
 800506c:	125ffc2c 	andhi	r9,r2,32752
 8005070:	009ff834 	movhi	r2,32736
 8005074:	48805626 	beq	r9,r2,80051d0 <_strtod_r+0xa44>
 8005078:	b0001e26 	beq	r22,zero,80050f4 <_strtod_r+0x968>
 800507c:	0081a834 	movhi	r2,1696
 8005080:	12401c36 	bltu	r2,r9,80050f4 <_strtod_r+0x968>
 8005084:	d9000f17 	ldw	r4,60(sp)
 8005088:	d9400a17 	ldw	r5,40(sp)
 800508c:	01d07834 	movhi	r7,16864
 8005090:	39ffffc4 	addi	r7,r7,-1
 8005094:	01bff034 	movhi	r6,65472
 8005098:	da401315 	stw	r9,76(sp)
 800509c:	80134ec0 	call	80134ec <__ledf2>
 80050a0:	da401317 	ldw	r9,76(sp)
 80050a4:	00801016 	blt	zero,r2,80050e8 <_strtod_r+0x95c>
 80050a8:	d9000f17 	ldw	r4,60(sp)
 80050ac:	d9400a17 	ldw	r5,40(sp)
 80050b0:	80125e00 	call	80125e0 <__fixunsdfsi>
 80050b4:	da401317 	ldw	r9,76(sp)
 80050b8:	1000dc26 	beq	r2,zero,800542c <_strtod_r+0xca0>
 80050bc:	1009883a 	mov	r4,r2
 80050c0:	8013e9c0 	call	8013e9c <__floatunsidf>
 80050c4:	da401317 	ldw	r9,76(sp)
 80050c8:	d8800f15 	stw	r2,60(sp)
 80050cc:	d8c00a15 	stw	r3,40(sp)
 80050d0:	d8c00b17 	ldw	r3,44(sp)
 80050d4:	1800d31e 	bne	r3,zero,8005424 <_strtod_r+0xc98>
 80050d8:	d9000a17 	ldw	r4,40(sp)
 80050dc:	2220003c 	xorhi	r8,r4,32768
 80050e0:	df000f17 	ldw	fp,60(sp)
 80050e4:	402f883a 	mov	r23,r8
 80050e8:	0081ac34 	movhi	r2,1712
 80050ec:	b891883a 	add	r8,r23,r2
 80050f0:	426fc83a 	sub	r23,r8,r9
 80050f4:	a809883a 	mov	r4,r21
 80050f8:	880b883a 	mov	r5,r17
 80050fc:	da401315 	stw	r9,76(sp)
 8005100:	800e1980 	call	800e198 <__ulp>
 8005104:	b80b883a 	mov	r5,r23
 8005108:	e009883a 	mov	r4,fp
 800510c:	100d883a 	mov	r6,r2
 8005110:	180f883a 	mov	r7,r3
 8005114:	80031b40 	call	80031b4 <__muldf3>
 8005118:	a809883a 	mov	r4,r21
 800511c:	880b883a 	mov	r5,r17
 8005120:	100d883a 	mov	r6,r2
 8005124:	180f883a 	mov	r7,r3
 8005128:	800204c0 	call	800204c <__adddf3>
 800512c:	da401317 	ldw	r9,76(sp)
 8005130:	102b883a 	mov	r21,r2
 8005134:	1823883a 	mov	r17,r3
 8005138:	d8800815 	stw	r2,32(sp)
 800513c:	d8c00715 	stw	r3,28(sp)
 8005140:	182f883a 	mov	r23,r3
 8005144:	b000021e 	bne	r22,zero,8005150 <_strtod_r+0x9c4>
 8005148:	b89ffc2c 	andhi	r2,r23,32752
 800514c:	48806e26 	beq	r9,r2,8005308 <_strtod_r+0xb7c>
 8005150:	d9400517 	ldw	r5,20(sp)
 8005154:	8009883a 	mov	r4,r16
 8005158:	800d7880 	call	800d788 <_Bfree>
 800515c:	8009883a 	mov	r4,r16
 8005160:	980b883a 	mov	r5,r19
 8005164:	800d7880 	call	800d788 <_Bfree>
 8005168:	8009883a 	mov	r4,r16
 800516c:	900b883a 	mov	r5,r18
 8005170:	800d7880 	call	800d788 <_Bfree>
 8005174:	8009883a 	mov	r4,r16
 8005178:	a00b883a 	mov	r5,r20
 800517c:	800d7880 	call	800d788 <_Bfree>
 8005180:	003f3b06 	br	8004e70 <__alt_data_end+0xfc004e70>
 8005184:	00c00d84 	movi	r3,54
 8005188:	1905c83a 	sub	r2,r3,r4
 800518c:	003f6006 	br	8004f10 <__alt_data_end+0xfc004f10>
 8005190:	4009883a 	mov	r4,r8
 8005194:	b80b883a 	mov	r5,r23
 8005198:	000d883a 	mov	r6,zero
 800519c:	01cff834 	movhi	r7,16352
 80051a0:	80031b40 	call	80031b4 <__muldf3>
 80051a4:	d9000b17 	ldw	r4,44(sp)
 80051a8:	d8800f15 	stw	r2,60(sp)
 80051ac:	d8c00a15 	stw	r3,40(sp)
 80051b0:	2000481e 	bne	r4,zero,80052d4 <_strtod_r+0xb48>
 80051b4:	1a20003c 	xorhi	r8,r3,32768
 80051b8:	1039883a 	mov	fp,r2
 80051bc:	d8800717 	ldw	r2,28(sp)
 80051c0:	402f883a 	mov	r23,r8
 80051c4:	125ffc2c 	andhi	r9,r2,32752
 80051c8:	009ff834 	movhi	r2,32736
 80051cc:	48bfaa1e 	bne	r9,r2,8005078 <__alt_data_end+0xfc005078>
 80051d0:	d8c00717 	ldw	r3,28(sp)
 80051d4:	00bf2c34 	movhi	r2,64688
 80051d8:	d9000817 	ldw	r4,32(sp)
 80051dc:	1887883a 	add	r3,r3,r2
 80051e0:	180b883a 	mov	r5,r3
 80051e4:	da401315 	stw	r9,76(sp)
 80051e8:	d8c00715 	stw	r3,28(sp)
 80051ec:	800e1980 	call	800e198 <__ulp>
 80051f0:	e009883a 	mov	r4,fp
 80051f4:	b80b883a 	mov	r5,r23
 80051f8:	100d883a 	mov	r6,r2
 80051fc:	180f883a 	mov	r7,r3
 8005200:	80031b40 	call	80031b4 <__muldf3>
 8005204:	d9000817 	ldw	r4,32(sp)
 8005208:	d9400717 	ldw	r5,28(sp)
 800520c:	100d883a 	mov	r6,r2
 8005210:	180f883a 	mov	r7,r3
 8005214:	800204c0 	call	800204c <__adddf3>
 8005218:	011f2834 	movhi	r4,31904
 800521c:	d8800815 	stw	r2,32(sp)
 8005220:	213fffc4 	addi	r4,r4,-1
 8005224:	189ffc2c 	andhi	r2,r3,32752
 8005228:	da401317 	ldw	r9,76(sp)
 800522c:	2080762e 	bgeu	r4,r2,8005408 <_strtod_r+0xc7c>
 8005230:	009ffc34 	movhi	r2,32752
 8005234:	10bfffc4 	addi	r2,r2,-1
 8005238:	88814426 	beq	r17,r2,800574c <_strtod_r+0xfc0>
 800523c:	00dffc34 	movhi	r3,32752
 8005240:	18ffffc4 	addi	r3,r3,-1
 8005244:	013fffc4 	movi	r4,-1
 8005248:	d8c00715 	stw	r3,28(sp)
 800524c:	d9000815 	stw	r4,32(sp)
 8005250:	202b883a 	mov	r21,r4
 8005254:	1823883a 	mov	r17,r3
 8005258:	003fbd06 	br	8005150 <__alt_data_end+0xfc005150>
 800525c:	a0afc83a 	sub	r23,r20,r2
 8005260:	df000917 	ldw	fp,36(sp)
 8005264:	003f2406 	br	8004ef8 <__alt_data_end+0xfc004ef8>
 8005268:	d8800817 	ldw	r2,32(sp)
 800526c:	10001b1e 	bne	r2,zero,80052dc <_strtod_r+0xb50>
 8005270:	d8c00717 	ldw	r3,28(sp)
 8005274:	01000434 	movhi	r4,16
 8005278:	213fffc4 	addi	r4,r4,-1
 800527c:	1904703a 	and	r2,r3,r4
 8005280:	10001b1e 	bne	r2,zero,80052f0 <_strtod_r+0xb64>
 8005284:	4009883a 	mov	r4,r8
 8005288:	b80b883a 	mov	r5,r23
 800528c:	000d883a 	mov	r6,zero
 8005290:	01cffc34 	movhi	r7,16368
 8005294:	da001315 	stw	r8,76(sp)
 8005298:	80134ec0 	call	80134ec <__ledf2>
 800529c:	da001317 	ldw	r8,76(sp)
